
kernel.elf:     file format elf32-littlearm


Disassembly of section .text:

00008000 <reset_handler-0x20>:
    8000:	e59ff018 	ldr	pc, [pc, #24]	; 8020 <reset_handler>
    8004:	e59ff018 	ldr	pc, [pc, #24]	; 8024 <undefined_handler>
    8008:	e59ff018 	ldr	pc, [pc, #24]	; 8028 <swi_handler>
    800c:	e59ff018 	ldr	pc, [pc, #24]	; 802c <prefetch_handler>
    8010:	e59ff018 	ldr	pc, [pc, #24]	; 8030 <data_handler>
    8014:	e59ff018 	ldr	pc, [pc, #24]	; 8034 <unused_handler>
    8018:	e59ff018 	ldr	pc, [pc, #24]	; 8038 <irq_handler>
    801c:	e59ff018 	ldr	pc, [pc, #24]	; 803c <fiq_handler>

00008020 <reset_handler>:
    8020:	00008040 	andeq	r8, r0, r0, asr #32

00008024 <undefined_handler>:
    8024:	00008084 	andeq	r8, r0, r4, lsl #1

00008028 <swi_handler>:
    8028:	00008088 	andeq	r8, r0, r8, lsl #1

0000802c <prefetch_handler>:
    802c:	0000808c 	andeq	r8, r0, ip, lsl #1

00008030 <data_handler>:
    8030:	00008090 	muleq	r0, r0, r0

00008034 <unused_handler>:
    8034:	00008094 	muleq	r0, r4, r0

00008038 <irq_handler>:
    8038:	000080cc 	andeq	r8, r0, ip, asr #1

0000803c <fiq_handler>:
    803c:	00008098 	muleq	r0, r8, r0

00008040 <reset>:
    8040:	e3a00902 	mov	r0, #32768	; 0x8000
    8044:	e3a01000 	mov	r1, #0
    8048:	e8b003fc 	ldm	r0!, {r2, r3, r4, r5, r6, r7, r8, r9}
    804c:	e8a103fc 	stmia	r1!, {r2, r3, r4, r5, r6, r7, r8, r9}
    8050:	e8b003fc 	ldm	r0!, {r2, r3, r4, r5, r6, r7, r8, r9}
    8054:	e8a103fc 	stmia	r1!, {r2, r3, r4, r5, r6, r7, r8, r9}
    8058:	e3a000d2 	mov	r0, #210	; 0xd2
    805c:	e121f000 	msr	CPSR_c, r0
    8060:	e3a0d902 	mov	sp, #32768	; 0x8000
    8064:	e3a000d1 	mov	r0, #209	; 0xd1
    8068:	e121f000 	msr	CPSR_c, r0
    806c:	e3a0d901 	mov	sp, #16384	; 0x4000
    8070:	e3a000d3 	mov	r0, #211	; 0xd3
    8074:	e121f000 	msr	CPSR_c, r0
    8078:	e3a0d302 	mov	sp, #134217728	; 0x8000000
    807c:	eb00002b 	bl	8130 <notmain>

00008080 <hang>:
    8080:	eafffffe 	b	8080 <hang>

00008084 <undefined>:
    8084:	eafffffe 	b	8084 <undefined>

00008088 <swi>:
    8088:	eafffffe 	b	8088 <swi>

0000808c <prefetch>:
    808c:	eafffffe 	b	808c <prefetch>

00008090 <data>:
    8090:	eafffffe 	b	8090 <data>

00008094 <unused>:
    8094:	eafffffe 	b	8094 <unused>

00008098 <fiq>:
    8098:	eafffffe 	b	8098 <fiq>

0000809c <PUT32>:
    809c:	e5801000 	str	r1, [r0]
    80a0:	e12fff1e 	bx	lr

000080a4 <PUT16>:
    80a4:	e1c010b0 	strh	r1, [r0]
    80a8:	e12fff1e 	bx	lr

000080ac <PUT8>:
    80ac:	e5c01000 	strb	r1, [r0]
    80b0:	e12fff1e 	bx	lr

000080b4 <GET32>:
    80b4:	e5900000 	ldr	r0, [r0]
    80b8:	e12fff1e 	bx	lr

000080bc <GETPC>:
    80bc:	e1a0000e 	mov	r0, lr
    80c0:	e12fff1e 	bx	lr

000080c4 <BRANCHTO>:
    80c4:	e12fff10 	bx	r0

000080c8 <dummy>:
    80c8:	e12fff1e 	bx	lr

000080cc <irq>:
    80cc:	ea00014c 	b	8604 <ctx_switch>

000080d0 <funcA>:
    80d0:	e52de004 	push	{lr}		; (str lr, [sp, #-4]!)
    80d4:	e24dd00c 	sub	sp, sp, #12
    80d8:	e3a03000 	mov	r3, #0
    80dc:	e58d3004 	str	r3, [sp, #4]
    80e0:	ea000003 	b	80f4 <funcA+0x24>
    80e4:	e59d3004 	ldr	r3, [sp, #4]
    80e8:	e2833001 	add	r3, r3, #1
    80ec:	e58d3004 	str	r3, [sp, #4]
    80f0:	eb0001b8 	bl	87d8 <yield>
    80f4:	e59d3004 	ldr	r3, [sp, #4]
    80f8:	e3530001 	cmp	r3, #1
    80fc:	dafffff8 	ble	80e4 <funcA+0x14>
    8100:	eb0001c6 	bl	8820 <exit>
    8104:	e28dd00c 	add	sp, sp, #12
    8108:	e8bd8000 	pop	{pc}

0000810c <funcB>:
    810c:	e52de004 	push	{lr}		; (str lr, [sp, #-4]!)
    8110:	e24dd00c 	sub	sp, sp, #12
    8114:	e3a03001 	mov	r3, #1
    8118:	e58d3004 	str	r3, [sp, #4]
    811c:	e59d3004 	ldr	r3, [sp, #4]
    8120:	e2833002 	add	r3, r3, #2
    8124:	e58d3004 	str	r3, [sp, #4]
    8128:	eb0001aa 	bl	87d8 <yield>
    812c:	eafffffa 	b	811c <funcB+0x10>

00008130 <notmain>:
    8130:	e92d4008 	push	{r3, lr}
    8134:	e59f0020 	ldr	r0, [pc, #32]	; 815c <notmain+0x2c>
    8138:	e3a01000 	mov	r1, #0
    813c:	eb00016d 	bl	86f8 <create_process>
    8140:	e59f0018 	ldr	r0, [pc, #24]	; 8160 <notmain+0x30>
    8144:	e3a01000 	mov	r1, #0
    8148:	eb00016a 	bl	86f8 <create_process>
    814c:	eb0001a1 	bl	87d8 <yield>
    8150:	e3a03000 	mov	r3, #0
    8154:	e1a00003 	mov	r0, r3
    8158:	e8bd8008 	pop	{r3, pc}
    815c:	000080d0 	ldrdeq	r8, [r0], -r0
    8160:	0000810c 	andeq	r8, r0, ip, lsl #2

00008164 <enable_timer_irq>:
    8164:	e92d4008 	push	{r3, lr}
    8168:	e59f0008 	ldr	r0, [pc, #8]	; 8178 <enable_timer_irq+0x14>
    816c:	e3a01002 	mov	r1, #2
    8170:	ebffffc9 	bl	809c <PUT32>
    8174:	e8bd8008 	pop	{r3, pc}
    8178:	7e003000 	cdpvc	0, 0, cr3, cr0, cr0, {0}

0000817c <disable_timer_irq>:
    817c:	e92d4008 	push	{r3, lr}
    8180:	e59f0008 	ldr	r0, [pc, #8]	; 8190 <disable_timer_irq+0x14>
    8184:	e3e01002 	mvn	r1, #2
    8188:	ebffffc3 	bl	809c <PUT32>
    818c:	e8bd8008 	pop	{r3, pc}
    8190:	7e003000 	cdpvc	0, 0, cr3, cr0, cr0, {0}

00008194 <set_next_tick_and_enable_timer_irq>:
    8194:	e52de004 	push	{lr}		; (str lr, [sp, #-4]!)
    8198:	e24dd00c 	sub	sp, sp, #12
    819c:	e59f0028 	ldr	r0, [pc, #40]	; 81cc <set_next_tick_and_enable_timer_irq+0x38>
    81a0:	ebffffc3 	bl	80b4 <GET32>
    81a4:	e58d0004 	str	r0, [sp, #4]
    81a8:	e59d3004 	ldr	r3, [sp, #4]
    81ac:	e2833702 	add	r3, r3, #524288	; 0x80000
    81b0:	e58d3004 	str	r3, [sp, #4]
    81b4:	e59f0014 	ldr	r0, [pc, #20]	; 81d0 <set_next_tick_and_enable_timer_irq+0x3c>
    81b8:	e59d1004 	ldr	r1, [sp, #4]
    81bc:	ebffffb6 	bl	809c <PUT32>
    81c0:	ebffffe7 	bl	8164 <enable_timer_irq>
    81c4:	e28dd00c 	add	sp, sp, #12
    81c8:	e8bd8000 	pop	{pc}
    81cc:	7e003004 	cdpvc	0, 0, cr3, cr0, cr4, {0}
    81d0:	7e003010 	mcrvc	0, 0, r3, cr0, cr0, {0}

000081d4 <led_off>:
    81d4:	e92d4008 	push	{r3, lr}
    81d8:	e59f0008 	ldr	r0, [pc, #8]	; 81e8 <led_off+0x14>
    81dc:	e3a01801 	mov	r1, #65536	; 0x10000
    81e0:	ebffffad 	bl	809c <PUT32>
    81e4:	e8bd8008 	pop	{r3, pc}
    81e8:	7e20001c 	miavc	acc0, ip, r0

000081ec <led_on>:
    81ec:	e92d4008 	push	{r3, lr}
    81f0:	e59f0008 	ldr	r0, [pc, #8]	; 8200 <led_on+0x14>
    81f4:	e3a01801 	mov	r1, #65536	; 0x10000
    81f8:	ebffffa7 	bl	809c <PUT32>
    81fc:	e8bd8008 	pop	{r3, pc}
    8200:	7e200028 	cdpvc	0, 2, cr0, cr0, cr8, {1}

00008204 <init_hw>:
    8204:	e52de004 	push	{lr}		; (str lr, [sp, #-4]!)
    8208:	e24dd00c 	sub	sp, sp, #12
    820c:	e59f0070 	ldr	r0, [pc, #112]	; 8284 <init_hw+0x80>
    8210:	ebffffa7 	bl	80b4 <GET32>
    8214:	e58d0004 	str	r0, [sp, #4]
    8218:	e59d3004 	ldr	r3, [sp, #4]
    821c:	e3c33707 	bic	r3, r3, #1835008	; 0x1c0000
    8220:	e58d3004 	str	r3, [sp, #4]
    8224:	e59d3004 	ldr	r3, [sp, #4]
    8228:	e3833701 	orr	r3, r3, #262144	; 0x40000
    822c:	e58d3004 	str	r3, [sp, #4]
    8230:	e59f004c 	ldr	r0, [pc, #76]	; 8284 <init_hw+0x80>
    8234:	e59d1004 	ldr	r1, [sp, #4]
    8238:	ebffff97 	bl	809c <PUT32>
    823c:	e59f0044 	ldr	r0, [pc, #68]	; 8288 <init_hw+0x84>
    8240:	e3a01801 	mov	r1, #65536	; 0x10000
    8244:	ebffff94 	bl	809c <PUT32>
    8248:	e59f003c 	ldr	r0, [pc, #60]	; 828c <init_hw+0x88>
    824c:	ebffff98 	bl	80b4 <GET32>
    8250:	e58d0000 	str	r0, [sp]
    8254:	e59d3000 	ldr	r3, [sp]
    8258:	e2833702 	add	r3, r3, #524288	; 0x80000
    825c:	e58d3000 	str	r3, [sp]
    8260:	e59f0028 	ldr	r0, [pc, #40]	; 8290 <init_hw+0x8c>
    8264:	e59d1000 	ldr	r1, [sp]
    8268:	ebffff8b 	bl	809c <PUT32>
    826c:	ebffffbc 	bl	8164 <enable_timer_irq>
    8270:	e59f001c 	ldr	r0, [pc, #28]	; 8294 <init_hw+0x90>
    8274:	e3a01002 	mov	r1, #2
    8278:	ebffff87 	bl	809c <PUT32>
    827c:	e28dd00c 	add	sp, sp, #12
    8280:	e8bd8000 	pop	{pc}
    8284:	7e200004 	cdpvc	0, 2, cr0, cr0, cr4, {0}
    8288:	7e20001c 	miavc	acc0, ip, r0
    828c:	7e003004 	cdpvc	0, 0, cr3, cr0, cr4, {0}
    8290:	7e003010 	mcrvc	0, 0, r3, cr0, cr0, {0}
    8294:	2000b210 	andcs	fp, r0, r0, lsl r2

00008298 <AllocateMemory>:
    8298:	e52de004 	push	{lr}		; (str lr, [sp, #-4]!)
    829c:	e24dd01c 	sub	sp, sp, #28
    82a0:	e58d0004 	str	r0, [sp, #4]
    82a4:	e59f312c 	ldr	r3, [pc, #300]	; 83d8 <AllocateMemory+0x140>
    82a8:	e58d3014 	str	r3, [sp, #20]
    82ac:	e59d3004 	ldr	r3, [sp, #4]
    82b0:	e3530000 	cmp	r3, #0
    82b4:	1a000001 	bne	82c0 <AllocateMemory+0x28>
    82b8:	e3a03102 	mov	r3, #-2147483648	; 0x80000000
    82bc:	ea000042 	b	83cc <AllocateMemory+0x134>
    82c0:	e59f3114 	ldr	r3, [pc, #276]	; 83dc <AllocateMemory+0x144>
    82c4:	e5933000 	ldr	r3, [r3]
    82c8:	e3530000 	cmp	r3, #0
    82cc:	1a000004 	bne	82e4 <AllocateMemory+0x4c>
    82d0:	e59d0014 	ldr	r0, [sp, #20]
    82d4:	eb0000a0 	bl	855c <createInitialHeader>
    82d8:	e59f30fc 	ldr	r3, [pc, #252]	; 83dc <AllocateMemory+0x144>
    82dc:	e3a02001 	mov	r2, #1
    82e0:	e5832000 	str	r2, [r3]
    82e4:	e3a03000 	mov	r3, #0
    82e8:	e58d3010 	str	r3, [sp, #16]
    82ec:	ea000025 	b	8388 <AllocateMemory+0xf0>
    82f0:	e59d3014 	ldr	r3, [sp, #20]
    82f4:	e2833004 	add	r3, r3, #4
    82f8:	e5933000 	ldr	r3, [r3]
    82fc:	e3530000 	cmp	r3, #0
    8300:	1a00001d 	bne	837c <AllocateMemory+0xe4>
    8304:	e59d3014 	ldr	r3, [sp, #20]
    8308:	e5932000 	ldr	r2, [r3]
    830c:	e59d3014 	ldr	r3, [sp, #20]
    8310:	e0633002 	rsb	r3, r3, r2
    8314:	e2433002 	sub	r3, r3, #2
    8318:	e58d300c 	str	r3, [sp, #12]
    831c:	e59d2004 	ldr	r2, [sp, #4]
    8320:	e59d300c 	ldr	r3, [sp, #12]
    8324:	e1520003 	cmp	r2, r3
    8328:	8a000013 	bhi	837c <AllocateMemory+0xe4>
    832c:	e3a03001 	mov	r3, #1
    8330:	e58d3010 	str	r3, [sp, #16]
    8334:	e59d2004 	ldr	r2, [sp, #4]
    8338:	e59d300c 	ldr	r3, [sp, #12]
    833c:	e0633002 	rsb	r3, r3, r2
    8340:	e3530003 	cmp	r3, #3
    8344:	9a000017 	bls	83a8 <AllocateMemory+0x110>
    8348:	e59d3014 	ldr	r3, [sp, #20]
    834c:	e5933000 	ldr	r3, [r3]
    8350:	e2433004 	sub	r3, r3, #4
    8354:	e59d2004 	ldr	r2, [sp, #4]
    8358:	e2822002 	add	r2, r2, #2
    835c:	e1a02102 	lsl	r2, r2, #2
    8360:	e59d1014 	ldr	r1, [sp, #20]
    8364:	e0812002 	add	r2, r1, r2
    8368:	e5832000 	str	r2, [r3]
    836c:	e59d0014 	ldr	r0, [sp, #20]
    8370:	e59d1004 	ldr	r1, [sp, #4]
    8374:	eb00004f 	bl	84b8 <createHeader>
    8378:	ea00000a 	b	83a8 <AllocateMemory+0x110>
    837c:	e59d3014 	ldr	r3, [sp, #20]
    8380:	e5933000 	ldr	r3, [r3]
    8384:	e58d3014 	str	r3, [sp, #20]
    8388:	e59d3014 	ldr	r3, [sp, #20]
    838c:	e5933000 	ldr	r3, [r3]
    8390:	e3530000 	cmp	r3, #0
    8394:	0a000004 	beq	83ac <AllocateMemory+0x114>
    8398:	e59d3010 	ldr	r3, [sp, #16]
    839c:	e3530000 	cmp	r3, #0
    83a0:	0affffd2 	beq	82f0 <AllocateMemory+0x58>
    83a4:	ea000000 	b	83ac <AllocateMemory+0x114>
    83a8:	e1a00000 	nop			; (mov r0, r0)
    83ac:	e59d3010 	ldr	r3, [sp, #16]
    83b0:	e3530000 	cmp	r3, #0
    83b4:	1a000002 	bne	83c4 <AllocateMemory+0x12c>
    83b8:	e59d0014 	ldr	r0, [sp, #20]
    83bc:	e59d1004 	ldr	r1, [sp, #4]
    83c0:	eb00003c 	bl	84b8 <createHeader>
    83c4:	e59d3014 	ldr	r3, [sp, #20]
    83c8:	e2833008 	add	r3, r3, #8
    83cc:	e1a00003 	mov	r0, r3
    83d0:	e28dd01c 	add	sp, sp, #28
    83d4:	e8bd8000 	pop	{pc}
    83d8:	0000a008 	andeq	sl, r0, r8
    83dc:	0000a004 	andeq	sl, r0, r4

000083e0 <FreeAllocatedMemory>:
    83e0:	e52de004 	push	{lr}		; (str lr, [sp, #-4]!)
    83e4:	e24dd00c 	sub	sp, sp, #12
    83e8:	e58d0004 	str	r0, [sp, #4]
    83ec:	e59d3004 	ldr	r3, [sp, #4]
    83f0:	e2433004 	sub	r3, r3, #4
    83f4:	e5932000 	ldr	r2, [r3]
    83f8:	e59f3034 	ldr	r3, [pc, #52]	; 8434 <FreeAllocatedMemory+0x54>
    83fc:	e1520003 	cmp	r2, r3
    8400:	1a000007 	bne	8424 <FreeAllocatedMemory+0x44>
    8404:	e59d0004 	ldr	r0, [sp, #4]
    8408:	eb00000a 	bl	8438 <concatenateFreeBlocks>
    840c:	e59d3004 	ldr	r3, [sp, #4]
    8410:	e2433004 	sub	r3, r3, #4
    8414:	e3a02000 	mov	r2, #0
    8418:	e5832000 	str	r2, [r3]
    841c:	e3a03001 	mov	r3, #1
    8420:	ea000000 	b	8428 <FreeAllocatedMemory+0x48>
    8424:	e3a03000 	mov	r3, #0
    8428:	e1a00003 	mov	r0, r3
    842c:	e28dd00c 	add	sp, sp, #12
    8430:	e8bd8000 	pop	{pc}
    8434:	44414d66 	strbmi	r4, [r1], #-3430	; 0xd66

00008438 <concatenateFreeBlocks>:
    8438:	e24dd008 	sub	sp, sp, #8
    843c:	e58d0004 	str	r0, [sp, #4]
    8440:	ea000015 	b	849c <concatenateFreeBlocks+0x64>
    8444:	e59d3004 	ldr	r3, [sp, #4]
    8448:	e5933000 	ldr	r3, [r3]
    844c:	e5933000 	ldr	r3, [r3]
    8450:	e3530000 	cmp	r3, #0
    8454:	1a000003 	bne	8468 <concatenateFreeBlocks+0x30>
    8458:	e59d3004 	ldr	r3, [sp, #4]
    845c:	e3a02000 	mov	r2, #0
    8460:	e5832000 	str	r2, [r3]
    8464:	ea000011 	b	84b0 <concatenateFreeBlocks+0x78>
    8468:	e59d3004 	ldr	r3, [sp, #4]
    846c:	e5933000 	ldr	r3, [r3]
    8470:	e5932000 	ldr	r2, [r3]
    8474:	e59d3004 	ldr	r3, [sp, #4]
    8478:	e5832000 	str	r2, [r3]
    847c:	e59d3004 	ldr	r3, [sp, #4]
    8480:	e5933000 	ldr	r3, [r3]
    8484:	e5933000 	ldr	r3, [r3]
    8488:	e59d2004 	ldr	r2, [sp, #4]
    848c:	e5922000 	ldr	r2, [r2]
    8490:	e2422004 	sub	r2, r2, #4
    8494:	e5922000 	ldr	r2, [r2]
    8498:	e5832000 	str	r2, [r3]
    849c:	e59d3004 	ldr	r3, [sp, #4]
    84a0:	e5933000 	ldr	r3, [r3]
    84a4:	e5933000 	ldr	r3, [r3]
    84a8:	e3730001 	cmn	r3, #1
    84ac:	0affffe4 	beq	8444 <concatenateFreeBlocks+0xc>
    84b0:	e28dd008 	add	sp, sp, #8
    84b4:	e12fff1e 	bx	lr

000084b8 <createHeader>:
    84b8:	e24dd008 	sub	sp, sp, #8
    84bc:	e58d0004 	str	r0, [sp, #4]
    84c0:	e58d1000 	str	r1, [sp]
    84c4:	e59d3000 	ldr	r3, [sp]
    84c8:	e2833002 	add	r3, r3, #2
    84cc:	e1a03103 	lsl	r3, r3, #2
    84d0:	e59d2004 	ldr	r2, [sp, #4]
    84d4:	e0823003 	add	r3, r2, r3
    84d8:	e59d2004 	ldr	r2, [sp, #4]
    84dc:	e2422004 	sub	r2, r2, #4
    84e0:	e5832000 	str	r2, [r3]
    84e4:	e59d3000 	ldr	r3, [sp]
    84e8:	e2833003 	add	r3, r3, #3
    84ec:	e1a03103 	lsl	r3, r3, #2
    84f0:	e59d2004 	ldr	r2, [sp, #4]
    84f4:	e0823003 	add	r3, r2, r3
    84f8:	e59d2004 	ldr	r2, [sp, #4]
    84fc:	e5922000 	ldr	r2, [r2]
    8500:	e5832000 	str	r2, [r3]
    8504:	e59d3000 	ldr	r3, [sp]
    8508:	e2833004 	add	r3, r3, #4
    850c:	e1a03103 	lsl	r3, r3, #2
    8510:	e59d2004 	ldr	r2, [sp, #4]
    8514:	e0823003 	add	r3, r2, r3
    8518:	e3a02000 	mov	r2, #0
    851c:	e5832000 	str	r2, [r3]
    8520:	e59d3000 	ldr	r3, [sp]
    8524:	e2833003 	add	r3, r3, #3
    8528:	e1a03103 	lsl	r3, r3, #2
    852c:	e59d2004 	ldr	r2, [sp, #4]
    8530:	e0823003 	add	r3, r2, r3
    8534:	e1a02003 	mov	r2, r3
    8538:	e59d3004 	ldr	r3, [sp, #4]
    853c:	e5832000 	str	r2, [r3]
    8540:	e59d3004 	ldr	r3, [sp, #4]
    8544:	e2833004 	add	r3, r3, #4
    8548:	e59f2008 	ldr	r2, [pc, #8]	; 8558 <createHeader+0xa0>
    854c:	e5832000 	str	r2, [r3]
    8550:	e28dd008 	add	sp, sp, #8
    8554:	e12fff1e 	bx	lr
    8558:	44414d66 	strbmi	r4, [r1], #-3430	; 0xd66

0000855c <createInitialHeader>:
    855c:	e24dd008 	sub	sp, sp, #8
    8560:	e58d0004 	str	r0, [sp, #4]
    8564:	e59d3004 	ldr	r3, [sp, #4]
    8568:	e2433004 	sub	r3, r3, #4
    856c:	e3a02000 	mov	r2, #0
    8570:	e5832000 	str	r2, [r3]
    8574:	e59d3004 	ldr	r3, [sp, #4]
    8578:	e3a02000 	mov	r2, #0
    857c:	e5832000 	str	r2, [r3]
    8580:	e59d3004 	ldr	r3, [sp, #4]
    8584:	e2833004 	add	r3, r3, #4
    8588:	e3a02000 	mov	r2, #0
    858c:	e5832000 	str	r2, [r3]
    8590:	e28dd008 	add	sp, sp, #8
    8594:	e12fff1e 	bx	lr

00008598 <start_current_ctx>:
    8598:	e59f3060 	ldr	r3, [pc, #96]	; 8600 <start_current_ctx+0x68>
    859c:	e5933000 	ldr	r3, [r3]
    85a0:	e5933000 	ldr	r3, [r3]
    85a4:	e1a0d003 	mov	sp, r3
    85a8:	e59f3050 	ldr	r3, [pc, #80]	; 8600 <start_current_ctx+0x68>
    85ac:	e5933000 	ldr	r3, [r3]
    85b0:	e5d33014 	ldrb	r3, [r3, #20]
    85b4:	e3530001 	cmp	r3, #1
    85b8:	1a000001 	bne	85c4 <start_current_ctx+0x2c>
    85bc:	e8bd1fff 	pop	{r0, r1, r2, r3, r4, r5, r6, r7, r8, r9, sl, fp, ip}
    85c0:	ea000008 	b	85e8 <start_current_ctx+0x50>
    85c4:	e59f3034 	ldr	r3, [pc, #52]	; 8600 <start_current_ctx+0x68>
    85c8:	e5933000 	ldr	r3, [r3]
    85cc:	e5d33014 	ldrb	r3, [r3, #20]
    85d0:	e3530000 	cmp	r3, #0
    85d4:	1a000003 	bne	85e8 <start_current_ctx+0x50>
    85d8:	e59f3020 	ldr	r3, [pc, #32]	; 8600 <start_current_ctx+0x68>
    85dc:	e5933000 	ldr	r3, [r3]
    85e0:	e3a02001 	mov	r2, #1
    85e4:	e5c32014 	strb	r2, [r3, #20]
    85e8:	e59f3010 	ldr	r3, [pc, #16]	; 8600 <start_current_ctx+0x68>
    85ec:	e5933000 	ldr	r3, [r3]
    85f0:	e5933004 	ldr	r3, [r3, #4]
    85f4:	e1a0e003 	mov	lr, r3
    85f8:	e1a00000 	nop			; (mov r0, r0)
    85fc:	e12fff1e 	bx	lr
    8600:	0000a000 	andeq	sl, r0, r0

00008604 <ctx_switch>:
    8604:	e92d4008 	push	{r3, lr}
    8608:	e59f3048 	ldr	r3, [pc, #72]	; 8658 <ctx_switch+0x54>
    860c:	e5933000 	ldr	r3, [r3]
    8610:	e593300c 	ldr	r3, [r3, #12]
    8614:	e5d33014 	ldrb	r3, [r3, #20]
    8618:	e3530001 	cmp	r3, #1
    861c:	1a000005 	bne	8638 <ctx_switch+0x34>
    8620:	e92d1fff 	push	{r0, r1, r2, r3, r4, r5, r6, r7, r8, r9, sl, fp, ip}
    8624:	e59f302c 	ldr	r3, [pc, #44]	; 8658 <ctx_switch+0x54>
    8628:	e5933000 	ldr	r3, [r3]
    862c:	e593300c 	ldr	r3, [r3, #12]
    8630:	e1a0200e 	mov	r2, lr
    8634:	e5832004 	str	r2, [r3, #4]
    8638:	e59f3018 	ldr	r3, [pc, #24]	; 8658 <ctx_switch+0x54>
    863c:	e5933000 	ldr	r3, [r3]
    8640:	e593300c 	ldr	r3, [r3, #12]
    8644:	e1a0200d 	mov	r2, sp
    8648:	e5832000 	str	r2, [r3]
    864c:	ebffffd1 	bl	8598 <start_current_ctx>
    8650:	e1a00000 	nop			; (mov r0, r0)
    8654:	e8bd8008 	pop	{r3, pc}
    8658:	0000a000 	andeq	sl, r0, r0

0000865c <init_pcb>:
    865c:	e52de004 	push	{lr}		; (str lr, [sp, #-4]!)
    8660:	e24dd014 	sub	sp, sp, #20
    8664:	e58d000c 	str	r0, [sp, #12]
    8668:	e58d1008 	str	r1, [sp, #8]
    866c:	e58d2004 	str	r2, [sp, #4]
    8670:	e58d3000 	str	r3, [sp]
    8674:	e59d0000 	ldr	r0, [sp]
    8678:	ebffff06 	bl	8298 <AllocateMemory>
    867c:	e1a02000 	mov	r2, r0
    8680:	e59d300c 	ldr	r3, [sp, #12]
    8684:	e5832000 	str	r2, [r3]
    8688:	e59d300c 	ldr	r3, [sp, #12]
    868c:	e5932000 	ldr	r2, [r3]
    8690:	e59d3000 	ldr	r3, [sp]
    8694:	e2433001 	sub	r3, r3, #1
    8698:	e1a03103 	lsl	r3, r3, #2
    869c:	e0822003 	add	r2, r2, r3
    86a0:	e59d300c 	ldr	r3, [sp, #12]
    86a4:	e5832000 	str	r2, [r3]
    86a8:	e59d2008 	ldr	r2, [sp, #8]
    86ac:	e59d300c 	ldr	r3, [sp, #12]
    86b0:	e5832004 	str	r2, [r3, #4]
    86b4:	e59d300c 	ldr	r3, [sp, #12]
    86b8:	e59d2004 	ldr	r2, [sp, #4]
    86bc:	e5832008 	str	r2, [r3, #8]
    86c0:	e59d300c 	ldr	r3, [sp, #12]
    86c4:	e3a02000 	mov	r2, #0
    86c8:	e5c32014 	strb	r2, [r3, #20]
    86cc:	e28dd014 	add	sp, sp, #20
    86d0:	e8bd8000 	pop	{pc}

000086d4 <free_pcb>:
    86d4:	e52de004 	push	{lr}		; (str lr, [sp, #-4]!)
    86d8:	e24dd00c 	sub	sp, sp, #12
    86dc:	e58d0004 	str	r0, [sp, #4]
    86e0:	e59d3004 	ldr	r3, [sp, #4]
    86e4:	e5933000 	ldr	r3, [r3]
    86e8:	e1a00003 	mov	r0, r3
    86ec:	ebffff3b 	bl	83e0 <FreeAllocatedMemory>
    86f0:	e28dd00c 	add	sp, sp, #12
    86f4:	e8bd8000 	pop	{pc}

000086f8 <create_process>:
    86f8:	e52de004 	push	{lr}		; (str lr, [sp, #-4]!)
    86fc:	e24dd014 	sub	sp, sp, #20
    8700:	e58d0004 	str	r0, [sp, #4]
    8704:	e58d1000 	str	r1, [sp]
    8708:	e3a00018 	mov	r0, #24
    870c:	ebfffee1 	bl	8298 <AllocateMemory>
    8710:	e1a03000 	mov	r3, r0
    8714:	e58d300c 	str	r3, [sp, #12]
    8718:	e59f30b0 	ldr	r3, [pc, #176]	; 87d0 <create_process+0xd8>
    871c:	e5933000 	ldr	r3, [r3]
    8720:	e3530000 	cmp	r3, #0
    8724:	0a000018 	beq	878c <create_process+0x94>
    8728:	e59f30a0 	ldr	r3, [pc, #160]	; 87d0 <create_process+0xd8>
    872c:	e5932000 	ldr	r2, [r3]
    8730:	e59d300c 	ldr	r3, [sp, #12]
    8734:	e5832010 	str	r2, [r3, #16]
    8738:	e59f3090 	ldr	r3, [pc, #144]	; 87d0 <create_process+0xd8>
    873c:	e5933000 	ldr	r3, [r3]
    8740:	e593200c 	ldr	r2, [r3, #12]
    8744:	e59d300c 	ldr	r3, [sp, #12]
    8748:	e583200c 	str	r2, [r3, #12]
    874c:	e59f307c 	ldr	r3, [pc, #124]	; 87d0 <create_process+0xd8>
    8750:	e5933000 	ldr	r3, [r3]
    8754:	e59d200c 	ldr	r2, [sp, #12]
    8758:	e583200c 	str	r2, [r3, #12]
    875c:	e59f306c 	ldr	r3, [pc, #108]	; 87d0 <create_process+0xd8>
    8760:	e5933000 	ldr	r3, [r3]
    8764:	e5932010 	ldr	r2, [r3, #16]
    8768:	e59f3060 	ldr	r3, [pc, #96]	; 87d0 <create_process+0xd8>
    876c:	e5933000 	ldr	r3, [r3]
    8770:	e1520003 	cmp	r2, r3
    8774:	1a00000d 	bne	87b0 <create_process+0xb8>
    8778:	e59f3050 	ldr	r3, [pc, #80]	; 87d0 <create_process+0xd8>
    877c:	e5933000 	ldr	r3, [r3]
    8780:	e59d200c 	ldr	r2, [sp, #12]
    8784:	e5832010 	str	r2, [r3, #16]
    8788:	ea000008 	b	87b0 <create_process+0xb8>
    878c:	e59d300c 	ldr	r3, [sp, #12]
    8790:	e59d200c 	ldr	r2, [sp, #12]
    8794:	e5832010 	str	r2, [r3, #16]
    8798:	e59d300c 	ldr	r3, [sp, #12]
    879c:	e59d200c 	ldr	r2, [sp, #12]
    87a0:	e583200c 	str	r2, [r3, #12]
    87a4:	e59f3024 	ldr	r3, [pc, #36]	; 87d0 <create_process+0xd8>
    87a8:	e59d200c 	ldr	r2, [sp, #12]
    87ac:	e5832000 	str	r2, [r3]
    87b0:	e59f301c 	ldr	r3, [pc, #28]	; 87d4 <create_process+0xdc>
    87b4:	e5933000 	ldr	r3, [r3]
    87b8:	e59d000c 	ldr	r0, [sp, #12]
    87bc:	e59d1004 	ldr	r1, [sp, #4]
    87c0:	e59d2000 	ldr	r2, [sp]
    87c4:	ebffffa4 	bl	865c <init_pcb>
    87c8:	e28dd014 	add	sp, sp, #20
    87cc:	e8bd8000 	pop	{pc}
    87d0:	0000a000 	andeq	sl, r0, r0
    87d4:	00009004 	andeq	r9, r0, r4

000087d8 <yield>:
    87d8:	e92d4008 	push	{r3, lr}
    87dc:	e59f3038 	ldr	r3, [pc, #56]	; 881c <yield+0x44>
    87e0:	e5933000 	ldr	r3, [r3]
    87e4:	e5932010 	ldr	r2, [r3, #16]
    87e8:	e59f302c 	ldr	r3, [pc, #44]	; 881c <yield+0x44>
    87ec:	e5933000 	ldr	r3, [r3]
    87f0:	e1520003 	cmp	r2, r3
    87f4:	1a000001 	bne	8800 <yield+0x28>
    87f8:	ebffff66 	bl	8598 <start_current_ctx>
    87fc:	ea000005 	b	8818 <yield+0x40>
    8800:	e59f3014 	ldr	r3, [pc, #20]	; 881c <yield+0x44>
    8804:	e5933000 	ldr	r3, [r3]
    8808:	e5932010 	ldr	r2, [r3, #16]
    880c:	e59f3008 	ldr	r3, [pc, #8]	; 881c <yield+0x44>
    8810:	e5832000 	str	r2, [r3]
    8814:	ebffff7a 	bl	8604 <ctx_switch>
    8818:	e8bd8008 	pop	{r3, pc}
    881c:	0000a000 	andeq	sl, r0, r0

00008820 <exit>:
    8820:	e92d4008 	push	{r3, lr}
    8824:	e59f30a8 	ldr	r3, [pc, #168]	; 88d4 <exit+0xb4>
    8828:	e5933000 	ldr	r3, [r3]
    882c:	e3a02002 	mov	r2, #2
    8830:	e5c32014 	strb	r2, [r3, #20]
    8834:	e59f3098 	ldr	r3, [pc, #152]	; 88d4 <exit+0xb4>
    8838:	e5933000 	ldr	r3, [r3]
    883c:	e5932010 	ldr	r2, [r3, #16]
    8840:	e59f308c 	ldr	r3, [pc, #140]	; 88d4 <exit+0xb4>
    8844:	e5933000 	ldr	r3, [r3]
    8848:	e1520003 	cmp	r2, r3
    884c:	1a000007 	bne	8870 <exit+0x50>
    8850:	e59f307c 	ldr	r3, [pc, #124]	; 88d4 <exit+0xb4>
    8854:	e5933000 	ldr	r3, [r3]
    8858:	e1a00003 	mov	r0, r3
    885c:	ebffff9c 	bl	86d4 <free_pcb>
    8860:	e59f306c 	ldr	r3, [pc, #108]	; 88d4 <exit+0xb4>
    8864:	e3a02000 	mov	r2, #0
    8868:	e5832000 	str	r2, [r3]
    886c:	ea000017 	b	88d0 <exit+0xb0>
    8870:	e59f305c 	ldr	r3, [pc, #92]	; 88d4 <exit+0xb4>
    8874:	e5933000 	ldr	r3, [r3]
    8878:	e593300c 	ldr	r3, [r3, #12]
    887c:	e59f2050 	ldr	r2, [pc, #80]	; 88d4 <exit+0xb4>
    8880:	e5922000 	ldr	r2, [r2]
    8884:	e5922010 	ldr	r2, [r2, #16]
    8888:	e5832010 	str	r2, [r3, #16]
    888c:	e59f3040 	ldr	r3, [pc, #64]	; 88d4 <exit+0xb4>
    8890:	e5933000 	ldr	r3, [r3]
    8894:	e5933010 	ldr	r3, [r3, #16]
    8898:	e59f2034 	ldr	r2, [pc, #52]	; 88d4 <exit+0xb4>
    889c:	e5922000 	ldr	r2, [r2]
    88a0:	e592200c 	ldr	r2, [r2, #12]
    88a4:	e583200c 	str	r2, [r3, #12]
    88a8:	e59f3024 	ldr	r3, [pc, #36]	; 88d4 <exit+0xb4>
    88ac:	e5933000 	ldr	r3, [r3]
    88b0:	e1a00003 	mov	r0, r3
    88b4:	ebffff86 	bl	86d4 <free_pcb>
    88b8:	e59f3014 	ldr	r3, [pc, #20]	; 88d4 <exit+0xb4>
    88bc:	e5933000 	ldr	r3, [r3]
    88c0:	e5932010 	ldr	r2, [r3, #16]
    88c4:	e59f3008 	ldr	r3, [pc, #8]	; 88d4 <exit+0xb4>
    88c8:	e5832000 	str	r2, [r3]
    88cc:	ebffff31 	bl	8598 <start_current_ctx>
    88d0:	e8bd8008 	pop	{r3, pc}
    88d4:	0000a000 	andeq	sl, r0, r0

000088d8 <start_sched>:
    88d8:	e92d4008 	push	{r3, lr}
    88dc:	ebfffe48 	bl	8204 <init_hw>
    88e0:	e8bd8008 	pop	{r3, pc}

Disassembly of section .rodata:

00009000 <STACK_SIZE>:
    9000:	00000080 	andeq	r0, r0, r0, lsl #1

00009004 <STACK_SIZE>:
    9004:	00000080 	andeq	r0, r0, r0, lsl #1

Disassembly of section .bss:

0000a000 <bss>:
    a000:	00000000 	andeq	r0, r0, r0

0000a004 <isInitialised>:
    a004:	00000000 	andeq	r0, r0, r0

0000a008 <heap>:
	...

Disassembly of section .ARM.attributes:

00000000 <.ARM.attributes>:
   0:	00003141 	andeq	r3, r0, r1, asr #2
   4:	61656100 	cmnvs	r5, r0, lsl #2
   8:	01006962 	tsteq	r0, r2, ror #18
   c:	00000027 	andeq	r0, r0, r7, lsr #32
  10:	005a3605 	subseq	r3, sl, r5, lsl #12
  14:	01080706 	tsteq	r8, r6, lsl #14
  18:	020a0109 	andeq	r0, sl, #1073741826	; 0x40000002
  1c:	01140412 	tsteq	r4, r2, lsl r4
  20:	03170115 	tsteq	r7, #1073741829	; 0x40000005
  24:	011a0118 	tsteq	sl, r8, lsl r1
  28:	011c031b 	tsteq	ip, fp, lsl r3
  2c:	012c0122 	teqeq	ip, r2, lsr #2
  30:	Address 0x0000000000000030 is out of bounds.


Disassembly of section .comment:

00000000 <.comment>:
   0:	3a434347 	bcc	10d0d24 <_bss_end+0x10c5d24>
   4:	4e472820 	cdpmi	8, 4, cr2, cr7, cr0, {1}
   8:	34202955 	strtcc	r2, [r0], #-2389	; 0x955
   c:	312e372e 	teqcc	lr, lr, lsr #14
	...

Disassembly of section .debug_line:

00000000 <.debug_line>:
   0:	00000061 	andeq	r0, r0, r1, rrx
   4:	00200002 	eoreq	r0, r0, r2
   8:	01020000 	mrseq	r0, (UNDEF: 2)
   c:	000d0efb 	strdeq	r0, [sp], -fp
  10:	01010101 	tsteq	r1, r1, lsl #2
  14:	01000000 	mrseq	r0, (UNDEF: 0)
  18:	00010000 	andeq	r0, r1, r0
  1c:	74636576 	strbtvc	r6, [r3], #-1398	; 0x576
  20:	2e73726f 	cdpcs	2, 7, cr7, cr3, cr15, {3}
  24:	00000073 	andeq	r0, r0, r3, ror r0
  28:	05000000 	streq	r0, [r0, #-0]
  2c:	00800002 	addeq	r0, r0, r2
  30:	2f2f1900 	svccs	0x002f1900
  34:	2f2f2f2f 	svccs	0x002f2f2f
  38:	080b032f 	stmdaeq	fp, {r0, r1, r2, r3, r5, r8, r9}
  3c:	2f2f2f20 	svccs	0x002f2f20
  40:	2f312f2f 	svccs	0x00312f2f
  44:	2f2f312f 	svccs	0x002f312f
  48:	342f2f31 	strtcc	r2, [pc], #-3889	; 50 <_start-0x7fb0>
  4c:	2f2f2f2f 	svccs	0x002f2f2f
  50:	322f2f2f 	eorcc	r2, pc, #188	; 0xbc
  54:	322f322f 	eorcc	r3, pc, #-268435454	; 0xf0000002
  58:	322f322f 	eorcc	r3, pc, #-268435454	; 0xf0000002
  5c:	3032322f 	eorscc	r3, r2, pc, lsr #4
  60:	01000202 	tsteq	r0, r2, lsl #4
  64:	0000c101 	andeq	ip, r0, r1, lsl #2
  68:	8a000200 	bhi	870 <_start-0x7790>
  6c:	02000000 	andeq	r0, r0, #0
  70:	0d0efb01 	vstreq	d15, [lr, #-4]
  74:	01010100 	mrseq	r0, (UNDEF: 17)
  78:	00000001 	andeq	r0, r0, r1
  7c:	01000001 	tsteq	r0, r1
  80:	74706f2f 	ldrbtvc	r6, [r0], #-3887	; 0xf2f
  84:	6669342f 	strbtvs	r3, [r9], -pc, lsr #8
  88:	2f534c2d 	svccs	0x00534c2d
  8c:	2d6d7261 	sfmcs	f7, 2, [sp, #-388]!	; 0xfffffe7c
  90:	656e6f6e 	strbvs	r6, [lr, #-3950]!	; 0xf6e
  94:	6261652d 	rsbvs	r6, r1, #188743680	; 0xb400000
  98:	63672d69 	cmnvs	r7, #6720	; 0x1a40
  9c:	696c2f63 	stmdbvs	ip!, {r0, r1, r5, r6, r8, r9, sl, fp, sp}^
  a0:	63672f62 	cmnvs	r7, #392	; 0x188
  a4:	72612f63 	rsbvc	r2, r1, #396	; 0x18c
  a8:	6f6e2d6d 	svcvs	0x006e2d6d
  ac:	652d656e 	strvs	r6, [sp, #-1390]!	; 0x56e
  b0:	2f696261 	svccs	0x00696261
  b4:	2e372e34 	mrccs	14, 1, r2, cr7, cr4, {1}
  b8:	6e692f31 	mcrvs	15, 3, r2, cr9, cr1, {1}
  bc:	64756c63 	ldrbtvs	r6, [r5], #-3171	; 0xc63
  c0:	6e000065 	cdpvs	0, 0, cr0, cr0, cr5, {3}
  c4:	616d746f 	cmnvs	sp, pc, ror #8
  c8:	632e6e69 	teqvs	lr, #1680	; 0x690
  cc:	00000000 	andeq	r0, r0, r0
  d0:	69647473 	stmdbvs	r4!, {r0, r1, r4, r5, r6, sl, ip, sp, lr}^
  d4:	672d746e 	strvs	r7, [sp, -lr, ror #8]!
  d8:	682e6363 	stmdavs	lr!, {r0, r1, r5, r6, r8, r9, sp, lr}
  dc:	00000100 	andeq	r0, r0, r0, lsl #2
  e0:	636f7270 	cmnvs	pc, #7
  e4:	2e737365 	cdpcs	3, 7, cr7, cr3, cr5, {3}
  e8:	00000068 	andeq	r0, r0, r8, rrx
  ec:	68637300 	stmdavs	r3!, {r8, r9, ip, sp, lr}^
  f0:	682e6465 	stmdavs	lr!, {r0, r2, r5, r6, sl, sp, lr}
  f4:	00000000 	andeq	r0, r0, r0
  f8:	02050000 	andeq	r0, r5, #0
  fc:	000080d0 	ldrdeq	r8, [r0], -r0
 100:	4b011c03 	blmi	47114 <_bss_end+0x3c114>
 104:	0067304b 	rsbeq	r3, r7, fp, asr #32
 108:	2b010402 	blcs	41118 <_bss_end+0x36118>
 10c:	4b4d2f6b 	blmi	134bec0 <_bss_end+0x1340ec0>
 110:	01040200 	mrseq	r0, R12_usr
 114:	0402004d 	streq	r0, [r2], #-77	; 0x4d
 118:	02006701 	andeq	r6, r0, #262144	; 0x40000
 11c:	342f0104 	strtcc	r0, [pc], #-260	; 124 <_start-0x7edc>
 120:	3068672f 	rsbcc	r6, r8, pc, lsr #14
 124:	0008022f 	andeq	r0, r8, pc, lsr #4
 128:	004f0101 	subeq	r0, pc, r1, lsl #2
 12c:	00020000 	andeq	r0, r2, r0
 130:	0000001b 	andeq	r0, r0, fp, lsl r0
 134:	0efb0102 	cdpeq	1, 15, cr0, cr11, cr2, {0}
 138:	0101000d 	tsteq	r1, sp
 13c:	00000101 	andeq	r0, r0, r1, lsl #2
 140:	00000100 	andeq	r0, r0, r0, lsl #2
 144:	77680001 	strbvc	r0, [r8, -r1]!
 148:	0000632e 	andeq	r6, r0, lr, lsr #6
 14c:	00000000 	andeq	r0, r0, r0
 150:	81640205 	cmnhi	r4, r5, lsl #4
 154:	17030000 	strne	r0, [r3, -r0]
 158:	4e673001 	cdpmi	0, 6, cr3, cr7, cr1, {0}
 15c:	4b4f6730 	blmi	13d9e24 <_bss_end+0x13cee24>
 160:	2f686767 	svccs	0x00686767
 164:	2f820903 	svccs	0x00820903
 168:	672f4e67 	strvs	r4, [pc, -r7, ror #28]!
 16c:	67674f51 			; <UNDEFINED> instruction: 0x67674f51
 170:	67696767 	strbvs	r6, [r9, -r7, ror #14]!
 174:	67316a67 	ldrvs	r6, [r1, -r7, ror #20]!
 178:	01000e02 	tsteq	r0, r2, lsl #28
 17c:	0000ef01 	andeq	lr, r0, r1, lsl #30
 180:	8d000200 	sfmhi	f0, 4, [r0, #-0]
 184:	02000000 	andeq	r0, r0, #0
 188:	0d0efb01 	vstreq	d15, [lr, #-4]
 18c:	01010100 	mrseq	r0, (UNDEF: 17)
 190:	00000001 	andeq	r0, r0, r1
 194:	01000001 	tsteq	r0, r1
 198:	74706f2f 	ldrbtvc	r6, [r0], #-3887	; 0xf2f
 19c:	6669342f 	strbtvs	r3, [r9], -pc, lsr #8
 1a0:	2f534c2d 	svccs	0x00534c2d
 1a4:	2d6d7261 	sfmcs	f7, 2, [sp, #-388]!	; 0xfffffe7c
 1a8:	656e6f6e 	strbvs	r6, [lr, #-3950]!	; 0xf6e
 1ac:	6261652d 	rsbvs	r6, r1, #188743680	; 0xb400000
 1b0:	63672d69 	cmnvs	r7, #6720	; 0x1a40
 1b4:	696c2f63 	stmdbvs	ip!, {r0, r1, r5, r6, r8, r9, sl, fp, sp}^
 1b8:	63672f62 	cmnvs	r7, #392	; 0x188
 1bc:	72612f63 	rsbvc	r2, r1, #396	; 0x18c
 1c0:	6f6e2d6d 	svcvs	0x006e2d6d
 1c4:	652d656e 	strvs	r6, [sp, #-1390]!	; 0x56e
 1c8:	2f696261 	svccs	0x00696261
 1cc:	2e372e34 	mrccs	14, 1, r2, cr7, cr4, {1}
 1d0:	6e692f31 	mcrvs	15, 3, r2, cr9, cr1, {1}
 1d4:	64756c63 	ldrbtvs	r6, [r5], #-3171	; 0xc63
 1d8:	61000065 	tstvs	r0, r5, rrx
 1dc:	636f6c6c 	cmnvs	pc, #27648	; 0x6c00
 1e0:	4d657461 	cfstrdmi	mvd7, [r5, #-388]!	; 0xfffffe7c
 1e4:	726f6d65 	rsbvc	r6, pc, #6464	; 0x1940
 1e8:	00632e79 	rsbeq	r2, r3, r9, ror lr
 1ec:	73000000 	movwvc	r0, #0
 1f0:	6e696474 	mcrvs	4, 3, r6, cr9, cr4, {3}
 1f4:	63672d74 	cmnvs	r7, #7424	; 0x1d00
 1f8:	00682e63 	rsbeq	r2, r8, r3, ror #28
 1fc:	61000001 	tstvs	r0, r1
 200:	636f6c6c 	cmnvs	pc, #27648	; 0x6c00
 204:	4d657461 	cfstrdmi	mvd7, [r5, #-388]!	; 0xfffffe7c
 208:	726f6d65 	rsbvc	r6, pc, #6464	; 0x1940
 20c:	00682e79 	rsbeq	r2, r8, r9, ror lr
 210:	00000000 	andeq	r0, r0, r0
 214:	98020500 	stmdals	r2, {r8, sl}
 218:	03000082 	movweq	r0, #130	; 0x82
 21c:	4c670126 	stfmie	f0, [r7], #-152	; 0xffffff68
 220:	4b834c67 	blmi	fe0d33c4 <_bss_end+0xfe0c83c4>
 224:	9f2f4b69 	svcls	0x002f4b69
 228:	a04b83bb 	strhge	r8, [fp], #-59	; 0xffffffc5
 22c:	31682108 	cmncc	r8, r8, lsl #2
 230:	01040200 	mrseq	r0, R12_usr
 234:	00667303 	rsbeq	r7, r6, r3, lsl #6
 238:	06020402 	streq	r0, [r2], -r2, lsl #8
 23c:	0a030682 	beq	c1c4c <_bss_end+0xb6c4c>
 240:	68673482 	stmdavs	r7!, {r1, r7, sl, ip, sp}^
 244:	bb67a24b 	bllt	19e8b78 <_bss_end+0x19ddb78>
 248:	2f4c834b 	svccs	0x004c834b
 24c:	4b820a03 	blmi	fe082a60 <_bss_end+0xfe077a60>
 250:	30679f2f 	rsbcc	r9, r7, pc, lsr #30
 254:	0402009f 	streq	r0, [r2], #-159	; 0x9f
 258:	f27a0301 	vcgt.s<illegal width 64>	d16, d10, d1
 25c:	4f9e0903 	svcmi	0x009e0903
 260:	d7f3f367 	ldrble	pc, [r3, r7, ror #6]!	; <UNPREDICTABLE>
 264:	4b6b83f3 	blmi	1ae1238 <_bss_end+0x1ad6238>
 268:	02836783 	addeq	r6, r3, #34340864	; 0x20c0000
 26c:	01010004 	tsteq	r1, r4
 270:	000000a7 	andeq	r0, r0, r7, lsr #1
 274:	00820002 	addeq	r0, r2, r2
 278:	01020000 	mrseq	r0, (UNDEF: 2)
 27c:	000d0efb 	strdeq	r0, [sp], -fp
 280:	01010101 	tsteq	r1, r1, lsl #2
 284:	01000000 	mrseq	r0, (UNDEF: 0)
 288:	2f010000 	svccs	0x00010000
 28c:	2f74706f 	svccs	0x0074706f
 290:	2d666934 	stclcs	9, cr6, [r6, #-208]!	; 0xffffff30
 294:	612f534c 	teqvs	pc, ip, asr #6
 298:	6e2d6d72 	mcrvs	13, 1, r6, cr13, cr2, {3}
 29c:	2d656e6f 	stclcs	14, cr6, [r5, #-444]!	; 0xfffffe44
 2a0:	69626165 	stmdbvs	r2!, {r0, r2, r5, r6, r8, sp, lr}^
 2a4:	6363672d 	cmnvs	r3, #11796480	; 0xb40000
 2a8:	62696c2f 	rsbvs	r6, r9, #12032	; 0x2f00
 2ac:	6363672f 	cmnvs	r3, #12320768	; 0xbc0000
 2b0:	6d72612f 	ldfvse	f6, [r2, #-188]!	; 0xffffff44
 2b4:	6e6f6e2d 	cdpvs	14, 6, cr6, cr15, cr13, {1}
 2b8:	61652d65 	cmnvs	r5, r5, ror #26
 2bc:	342f6962 	strtcc	r6, [pc], #-2402	; 2c4 <_start-0x7d3c>
 2c0:	312e372e 	teqcc	lr, lr, lsr #14
 2c4:	636e692f 	cmnvs	lr, #770048	; 0xbc000
 2c8:	6564756c 	strbvs	r7, [r4, #-1388]!	; 0x56c
 2cc:	69640000 	stmdbvs	r4!, {}^	; <UNPREDICTABLE>
 2d0:	74617073 	strbtvc	r7, [r1], #-115	; 0x73
 2d4:	72656863 	rsbvc	r6, r5, #6488064	; 0x630000
 2d8:	0000632e 	andeq	r6, r0, lr, lsr #6
 2dc:	74730000 	ldrbtvc	r0, [r3], #-0
 2e0:	746e6964 	strbtvc	r6, [lr], #-2404	; 0x964
 2e4:	6363672d 	cmnvs	r3, #11796480	; 0xb40000
 2e8:	0100682e 	tsteq	r0, lr, lsr #16
 2ec:	72700000 	rsbsvc	r0, r0, #0
 2f0:	7365636f 	cmnvc	r5, #-1140850687	; 0xbc000001
 2f4:	00682e73 	rsbeq	r2, r8, r3, ror lr
 2f8:	00000000 	andeq	r0, r0, r0
 2fc:	98020500 	stmdals	r2, {r8, sl}
 300:	03000085 	movweq	r0, #133	; 0x85
 304:	8413012c 	ldrhi	r0, [r3], #-300	; 0x12c
 308:	85a04ca0 	strhi	r4, [r0, #3232]!	; 0xca0
 30c:	2f4e2f84 	svccs	0x004e2f84
 310:	a0a12fbc 			; <UNDEFINED> instruction: 0xa0a12fbc
 314:	04022f30 	streq	r2, [r2], #-3888	; 0xf30
 318:	9b010100 	blls	40720 <_bss_end+0x35720>
 31c:	02000000 	andeq	r0, r0, #0
 320:	00007f00 	andeq	r7, r0, r0, lsl #30
 324:	fb010200 	blx	40b2e <_bss_end+0x35b2e>
 328:	01000d0e 	tsteq	r0, lr, lsl #26
 32c:	00010101 	andeq	r0, r1, r1, lsl #2
 330:	00010000 	andeq	r0, r1, r0
 334:	6f2f0100 	svcvs	0x002f0100
 338:	342f7470 	strtcc	r7, [pc], #-1136	; 340 <_start-0x7cc0>
 33c:	4c2d6669 	stcmi	6, cr6, [sp], #-420	; 0xfffffe5c
 340:	72612f53 	rsbvc	r2, r1, #332	; 0x14c
 344:	6f6e2d6d 	svcvs	0x006e2d6d
 348:	652d656e 	strvs	r6, [sp, #-1390]!	; 0x56e
 34c:	2d696261 	sfmcs	f6, 2, [r9, #-388]!	; 0xfffffe7c
 350:	2f636367 	svccs	0x00636367
 354:	2f62696c 	svccs	0x0062696c
 358:	2f636367 	svccs	0x00636367
 35c:	2d6d7261 	sfmcs	f7, 2, [sp, #-388]!	; 0xfffffe7c
 360:	656e6f6e 	strbvs	r6, [lr, #-3950]!	; 0xf6e
 364:	6261652d 	rsbvs	r6, r1, #188743680	; 0xb400000
 368:	2e342f69 	cdpcs	15, 3, cr2, cr4, cr9, {3}
 36c:	2f312e37 	svccs	0x00312e37
 370:	6c636e69 	stclvs	14, cr6, [r3], #-420	; 0xfffffe5c
 374:	00656475 	rsbeq	r6, r5, r5, ror r4
 378:	6f727000 	svcvs	0x00727000
 37c:	73736563 	cmnvc	r3, #415236096	; 0x18c00000
 380:	0000632e 	andeq	r6, r0, lr, lsr #6
 384:	74730000 	ldrbtvc	r0, [r3], #-0
 388:	746e6964 	strbtvc	r6, [lr], #-2404	; 0x964
 38c:	6363672d 	cmnvs	r3, #11796480	; 0xb40000
 390:	0100682e 	tsteq	r0, lr, lsr #16
 394:	72700000 	rsbsvc	r0, r0, #0
 398:	7365636f 	cmnvc	r5, #-1140850687	; 0xbc000001
 39c:	00682e73 	rsbeq	r2, r8, r3, ror lr
 3a0:	00000000 	andeq	r0, r0, r0
 3a4:	5c020500 	cfstr32pl	mvfx0, [r2], {-0}
 3a8:	17000086 	strne	r0, [r0, -r6, lsl #1]
 3ac:	67f39fbb 			; <UNDEFINED> instruction: 0x67f39fbb
 3b0:	674d6767 	strbvs	r6, [sp, -r7, ror #14]
 3b4:	00040283 	andeq	r0, r4, r3, lsl #5
 3b8:	00bb0101 	adcseq	r0, fp, r1, lsl #2
 3bc:	00020000 	andeq	r0, r2, r0
 3c0:	00000088 	andeq	r0, r0, r8, lsl #1
 3c4:	0efb0102 	cdpeq	1, 15, cr0, cr11, cr2, {0}
 3c8:	0101000d 	tsteq	r1, sp
 3cc:	00000101 	andeq	r0, r0, r1, lsl #2
 3d0:	00000100 	andeq	r0, r0, r0, lsl #2
 3d4:	706f2f01 	rsbvc	r2, pc, r1, lsl #30
 3d8:	69342f74 	ldmdbvs	r4!, {r2, r4, r5, r6, r8, r9, sl, fp, sp}
 3dc:	534c2d66 	movtpl	r2, #52582	; 0xcd66
 3e0:	6d72612f 	ldfvse	f6, [r2, #-188]!	; 0xffffff44
 3e4:	6e6f6e2d 	cdpvs	14, 6, cr6, cr15, cr13, {1}
 3e8:	61652d65 	cmnvs	r5, r5, ror #26
 3ec:	672d6962 	strvs	r6, [sp, -r2, ror #18]!
 3f0:	6c2f6363 	stcvs	3, cr6, [pc], #-396	; 26c <_start-0x7d94>
 3f4:	672f6269 	strvs	r6, [pc, -r9, ror #4]!
 3f8:	612f6363 	teqvs	pc, r3, ror #6
 3fc:	6e2d6d72 	mcrvs	13, 1, r6, cr13, cr2, {3}
 400:	2d656e6f 	stclcs	14, cr6, [r5, #-444]!	; 0xfffffe44
 404:	69626165 	stmdbvs	r2!, {r0, r2, r5, r6, r8, sp, lr}^
 408:	372e342f 	strcc	r3, [lr, -pc, lsr #8]!
 40c:	692f312e 	stmdbvs	pc!, {r1, r2, r3, r5, r8, ip, sp}	; <UNPREDICTABLE>
 410:	756c636e 	strbvc	r6, [ip, #-878]!	; 0x36e
 414:	00006564 	andeq	r6, r0, r4, ror #10
 418:	65686373 	strbvs	r6, [r8, #-883]!	; 0x373
 41c:	00632e64 	rsbeq	r2, r3, r4, ror #28
 420:	73000000 	movwvc	r0, #0
 424:	6e696474 	mcrvs	4, 3, r6, cr9, cr4, {3}
 428:	63672d74 	cmnvs	r7, #7424	; 0x1d00
 42c:	00682e63 	rsbeq	r2, r8, r3, ror #28
 430:	70000001 	andvc	r0, r0, r1
 434:	65636f72 	strbvs	r6, [r3, #-3954]!	; 0xf72
 438:	682e7373 	stmdavs	lr!, {r0, r1, r4, r5, r6, r8, r9, ip, sp, lr}
 43c:	00000000 	andeq	r0, r0, r0
 440:	65686373 	strbvs	r6, [r8, #-883]!	; 0x373
 444:	00682e64 	rsbeq	r2, r8, r4, ror #28
 448:	00000000 	andeq	r0, r0, r0
 44c:	f8020500 			; <UNDEFINED> instruction: 0xf8020500
 450:	15000086 	strne	r0, [r0, #-134]	; 0x86
 454:	83848483 	orrhi	r8, r4, #-2097152000	; 0x83000000
 458:	a3d8839f 	bicsge	r8, r8, #2080374786	; 0x7c000002
 45c:	bb696767 	bllt	1a5a200 <_bss_end+0x1a4f200>
 460:	4fd82f85 	svcmi	0x00d82f85
 464:	2f4d30a1 	svccs	0x004d30a1
 468:	8783d884 	strhi	sp, [r3, r4, lsl #17]
 46c:	a085d9d7 	ldrdge	sp, [r5], r7
 470:	2f2f4d30 	svccs	0x002f4d30
 474:	01000202 	tsteq	r0, r2, lsl #4
 478:	Address 0x0000000000000478 is out of bounds.


Disassembly of section .debug_info:

00000000 <.debug_info>:
   0:	00000072 	andeq	r0, r0, r2, ror r0
   4:	00000002 	andeq	r0, r0, r2
   8:	01040000 	mrseq	r0, (UNDEF: 4)
   c:	00000000 	andeq	r0, r0, r0
  10:	00008000 	andeq	r8, r0, r0
  14:	000080d0 	ldrdeq	r8, [r0], -r0
  18:	74636576 	strbtvc	r6, [r3], #-1398	; 0x576
  1c:	2e73726f 	cdpcs	2, 7, cr7, cr3, cr15, {3}
  20:	682f0073 	stmdavs	pc!, {r0, r1, r4, r5, r6}	; <UNPREDICTABLE>
  24:	2f656d6f 	svccs	0x00656d6f
  28:	6975626e 	ldmdbvs	r5!, {r1, r2, r3, r5, r6, r9, sp, lr}^
  2c:	6e6f7373 	mcrvs	3, 3, r7, cr15, cr3, {3}
  30:	3434482f 	ldrtcc	r4, [r4], #-2095	; 0x82f
  34:	522f3430 	eorpl	r3, pc, #805306368	; 0x30000000
  38:	62707361 	rsbsvs	r7, r0, #-2080374783	; 0x84000001
  3c:	79727265 	ldmdbvc	r2!, {r0, r2, r5, r6, r9, ip, sp, lr}^
  40:	756f6c2f 	strbvc	r6, [pc, #-3119]!	; fffff419 <_bss_end+0xffff4419>
  44:	2d657369 	stclcs	3, cr7, [r5, #-420]!	; 0xfffffe5c
  48:	2f626f62 	svccs	0x00626f62
  4c:	6f64726f 	svcvs	0x0064726f
  50:	6e616e6e 	cdpvs	14, 6, cr6, cr1, cr14, {3}
  54:	656d6563 	strbvs	r6, [sp, #-1379]!	; 0x563
  58:	635f746e 	cmpvs	pc, #1845493760	; 0x6e000000
  5c:	616c6c6f 	cmnvs	ip, pc, ror #24
  60:	61726f62 	cmnvs	r2, r2, ror #30
  64:	00666974 	rsbeq	r6, r6, r4, ror r9
  68:	20554e47 	subscs	r4, r5, r7, asr #28
  6c:	32205341 	eorcc	r5, r0, #67108865	; 0x4000001
  70:	0032322e 	eorseq	r3, r2, lr, lsr #4
  74:	01988001 	orrseq	r8, r8, r1
  78:	00020000 	andeq	r0, r2, r0
  7c:	00000014 	andeq	r0, r0, r4, lsl r0
  80:	00ee0104 	rsceq	r0, lr, r4, lsl #2
  84:	16010000 	strne	r0, [r1], -r0
  88:	2b000000 	blcs	90 <_start-0x7f70>
  8c:	d0000000 	andle	r0, r0, r0
  90:	64000080 	strvs	r0, [r0], #-128	; 0x80
  94:	65000081 	strvs	r0, [r0, #-129]	; 0x81
  98:	02000000 	andeq	r0, r0, #0
  9c:	00730601 	rsbseq	r0, r3, r1, lsl #12
  a0:	02020000 	andeq	r0, r2, #0
  a4:	0000fa05 	andeq	pc, r0, r5, lsl #20
  a8:	05040200 	streq	r0, [r4, #-512]	; 0x200
  ac:	000000e5 	andeq	r0, r0, r5, ror #1
  b0:	e0050802 	and	r0, r5, r2, lsl #16
  b4:	02000000 	andeq	r0, r0, #0
  b8:	00710801 	rsbseq	r0, r1, r1, lsl #16
  bc:	02020000 	andeq	r0, r2, #0
  c0:	00007f07 	andeq	r7, r0, r7, lsl #30
  c4:	01090300 	mrseq	r0, (UNDEF: 57)
  c8:	34020000 	strcc	r0, [r2], #-0
  cc:	0000005a 	andeq	r0, r0, sl, asr r0
  d0:	c8070402 	stmdagt	r7, {r1, sl}
  d4:	02000000 	andeq	r0, r0, #0
  d8:	00c30708 	sbceq	r0, r3, r8, lsl #14
  dc:	04040000 	streq	r0, [r4], #-0
  e0:	746e6905 	strbtvc	r6, [lr], #-2309	; 0x905
  e4:	07040200 	streq	r0, [r4, -r0, lsl #4]
  e8:	000000cd 	andeq	r0, r0, sp, asr #1
  ec:	0f030105 	svceq	0x00030105
  f0:	00000091 	muleq	r0, r1, r0
  f4:	0000da06 	andeq	sp, r0, r6, lsl #20
  f8:	12060000 	andne	r0, r6, #0
  fc:	01000001 	tsteq	r0, r1
 100:	00011f06 	andeq	r1, r1, r6, lsl #30
 104:	03000200 	movweq	r0, #512	; 0x200
 108:	000000a1 	andeq	r0, r0, r1, lsr #1
 10c:	00760f03 	rsbseq	r0, r6, r3, lsl #30
 110:	20070000 	andcs	r0, r7, r0
 114:	18000000 	stmdane	r0, {}	; <UNPREDICTABLE>
 118:	00fb1303 	rscseq	r1, fp, r3, lsl #6
 11c:	73080000 	movwvc	r0, #32768	; 0x8000
 120:	15030070 	strne	r0, [r3, #-112]	; 0x70
 124:	000000fb 	strdeq	r0, [r0], -fp
 128:	08002302 	stmdaeq	r0, {r1, r8, r9, sp}
 12c:	0300726c 	movweq	r7, #620	; 0x26c
 130:	00006f16 	andeq	r6, r0, r6, lsl pc
 134:	04230200 	strteq	r0, [r3], #-512	; 0x200
 138:	00010409 	andeq	r0, r1, r9, lsl #8
 13c:	01270300 	teqeq	r7, r0, lsl #6
 140:	02000001 	andeq	r0, r0, #1
 144:	92090823 	andls	r0, r9, #2293760	; 0x230000
 148:	03000000 	movweq	r0, #0
 14c:	00010329 	andeq	r0, r1, r9, lsr #6
 150:	0c230200 	sfmeq	f0, 4, [r3], #-0
 154:	00011a09 	andeq	r1, r1, r9, lsl #20
 158:	032a0300 	teqeq	sl, #0
 15c:	02000001 	andeq	r0, r0, #1
 160:	bb091023 	bllt	2441f4 <_bss_end+0x2391f4>
 164:	03000000 	movweq	r0, #0
 168:	0000912c 	andeq	r9, r0, ip, lsr #2
 16c:	14230200 	strtne	r0, [r3], #-512	; 0x200
 170:	4f040a00 	svcmi	0x00040a00
 174:	0b000000 	bleq	17c <_start-0x7e84>
 178:	9c040a04 	stcls	10, cr0, [r4], {4}
 17c:	0c000000 	stceq	0, cr0, [r0], {-0}
 180:	00009b01 	andeq	r9, r0, r1, lsl #22
 184:	d01c0100 	andsle	r0, ip, r0, lsl #2
 188:	0c000080 	stceq	0, cr0, [r0], {128}	; 0x80
 18c:	00000081 	andeq	r0, r0, r1, lsl #1
 190:	01000000 	mrseq	r0, (UNDEF: 0)
 194:	00000131 	andeq	r0, r0, r1, lsr r1
 198:	0000000d 	andeq	r0, r0, sp
 19c:	681e0100 	ldmdavs	lr, {r8}
 1a0:	02000000 	andeq	r0, r0, #0
 1a4:	0c007491 	cfstrseq	mvf7, [r0], {145}	; 0x91
 1a8:	00000501 	andeq	r0, r0, r1, lsl #10
 1ac:	0c270100 	stfeqs	f0, [r7], #-0
 1b0:	30000081 	andcc	r0, r0, r1, lsl #1
 1b4:	2c000081 	stccs	0, cr0, [r0], {129}	; 0x81
 1b8:	01000000 	mrseq	r0, (UNDEF: 0)
 1bc:	00000159 	andeq	r0, r0, r9, asr r1
 1c0:	0000260d 	andeq	r2, r0, sp, lsl #12
 1c4:	68290100 	stmdavs	r9!, {r8}
 1c8:	02000000 	andeq	r0, r0, #0
 1cc:	0e007491 	mcreq	4, 0, r7, cr0, cr1, {4}
 1d0:	00012a01 	andeq	r2, r1, r1, lsl #20
 1d4:	01330100 	teqeq	r3, r0, lsl #2
 1d8:	00000068 	andeq	r0, r0, r8, rrx
 1dc:	00008130 	andeq	r8, r0, r0, lsr r1
 1e0:	00008164 	andeq	r8, r0, r4, ror #2
 1e4:	00000058 	andeq	r0, r0, r8, asr r0
 1e8:	000b0d01 	andeq	r0, fp, r1, lsl #26
 1ec:	0c040000 	stceq	0, cr0, [r4], {-0}
 1f0:	00000184 	andeq	r0, r0, r4, lsl #3
 1f4:	90000305 	andls	r0, r0, r5, lsl #6
 1f8:	6f0f0000 	svcvs	0x000f0000
 1fc:	10000000 	andne	r0, r0, r0
 200:	000000ab 	andeq	r0, r0, fp, lsr #1
 204:	01033203 	tsteq	r3, r3, lsl #4
 208:	05010000 	streq	r0, [r1, #-0]
 20c:	00a00003 	adceq	r0, r0, r3
 210:	00d40000 	sbcseq	r0, r4, r0
 214:	00020000 	andeq	r0, r2, r0
 218:	000000f7 	strdeq	r0, [r0], -r7
 21c:	00ee0104 	rsceq	r0, lr, r4, lsl #2
 220:	44010000 	strmi	r0, [r1], #-0
 224:	2b000001 	blcs	230 <_start-0x7dd0>
 228:	64000000 	strvs	r0, [r0], #-0
 22c:	98000081 	stmdals	r0, {r0, r7}
 230:	2a000082 	bcs	440 <_start-0x7bc0>
 234:	02000001 	andeq	r0, r0, #1
 238:	00016a01 	andeq	r6, r1, r1, lsl #20
 23c:	64170100 	ldrvs	r0, [r7], #-256	; 0x100
 240:	7c000081 	stcvc	0, cr0, [r0], {129}	; 0x81
 244:	78000081 	stmdavc	r0, {r0, r7}
 248:	01000000 	mrseq	r0, (UNDEF: 0)
 24c:	01320102 	teqeq	r2, r2, lsl #2
 250:	1e010000 	cdpne	0, 0, cr0, cr1, cr0, {0}
 254:	0000817c 	andeq	r8, r0, ip, ror r1
 258:	00008194 	muleq	r0, r4, r1
 25c:	00000098 	muleq	r0, r8, r0
 260:	58010301 	stmdapl	r1, {r0, r8, r9}
 264:	01000001 	tsteq	r0, r1
 268:	00819426 	addeq	r9, r1, r6, lsr #8
 26c:	0081d400 	addeq	sp, r1, r0, lsl #8
 270:	0000b800 	andeq	fp, r0, r0, lsl #16
 274:	00760100 	rsbseq	r0, r6, r0, lsl #2
 278:	72040000 	andvc	r0, r4, #0
 27c:	28010078 	stmdacs	r1, {r3, r4, r5, r6}
 280:	00000076 	andeq	r0, r0, r6, ror r0
 284:	00749102 	rsbseq	r9, r4, r2, lsl #2
 288:	cd070405 	cfstrsgt	mvf0, [r7, #-20]	; 0xffffffec
 28c:	02000000 	andeq	r0, r0, #0
 290:	00017b01 	andeq	r7, r1, r1, lsl #22
 294:	d4350100 	ldrtle	r0, [r5], #-256	; 0x100
 298:	ec000081 	stc	0, cr0, [r0], {129}	; 0x81
 29c:	e4000081 	str	r0, [r0], #-129	; 0x81
 2a0:	01000000 	mrseq	r0, (UNDEF: 0)
 2a4:	01490102 	cmpeq	r9, r2, lsl #2
 2a8:	3b010000 	blcc	402b0 <_bss_end+0x352b0>
 2ac:	000081ec 	andeq	r8, r0, ip, ror #3
 2b0:	00008204 	andeq	r8, r0, r4, lsl #4
 2b4:	00000104 	andeq	r0, r0, r4, lsl #2
 2b8:	50010601 	andpl	r0, r1, r1, lsl #12
 2bc:	01000001 	tsteq	r0, r1
 2c0:	00820444 	addeq	r0, r2, r4, asr #8
 2c4:	00829800 	addeq	r9, r2, r0, lsl #16
 2c8:	00012400 	andeq	r2, r1, r0, lsl #8
 2cc:	72040100 	andvc	r0, r4, #0
 2d0:	46010061 	strmi	r0, [r1], -r1, rrx
 2d4:	00000076 	andeq	r0, r0, r6, ror r0
 2d8:	04749102 	ldrbteq	r9, [r4], #-258	; 0x102
 2dc:	01007872 	tsteq	r0, r2, ror r8
 2e0:	00007647 	andeq	r7, r0, r7, asr #12
 2e4:	70910200 	addsvc	r0, r1, r0, lsl #4
 2e8:	01d30000 	bicseq	r0, r3, r0
 2ec:	00020000 	andeq	r0, r2, r0
 2f0:	00000169 	andeq	r0, r0, r9, ror #2
 2f4:	00ee0104 	rsceq	r0, lr, r4, lsl #2
 2f8:	db010000 	blle	40300 <_bss_end+0x35300>
 2fc:	2b000001 	blcs	308 <_start-0x7cf8>
 300:	98000000 	stmdals	r0, {}	; <UNPREDICTABLE>
 304:	98000082 	stmdals	r0, {r1, r7}
 308:	7d000085 	stcvc	0, cr0, [r0, #-532]	; 0xfffffdec
 30c:	02000001 	andeq	r0, r0, #1
 310:	00730601 	rsbseq	r0, r3, r1, lsl #12
 314:	02020000 	andeq	r0, r2, #0
 318:	0000fa05 	andeq	pc, r0, r5, lsl #20
 31c:	05040200 	streq	r0, [r4, #-512]	; 0x200
 320:	000000e5 	andeq	r0, r0, r5, ror #1
 324:	e0050802 	and	r0, r5, r2, lsl #16
 328:	02000000 	andeq	r0, r0, #0
 32c:	00710801 	rsbseq	r0, r1, r1, lsl #16
 330:	02020000 	andeq	r0, r2, #0
 334:	00007f07 	andeq	r7, r0, r7, lsl #30
 338:	01090300 	mrseq	r0, (UNDEF: 57)
 33c:	34020000 	strcc	r0, [r2], #-0
 340:	0000005a 	andeq	r0, r0, sl, asr r0
 344:	c8070402 	stmdagt	r7, {r1, sl}
 348:	02000000 	andeq	r0, r0, #0
 34c:	00c30708 	sbceq	r0, r3, r8, lsl #14
 350:	04040000 	streq	r0, [r4], #-0
 354:	746e6905 	strbtvc	r6, [lr], #-2309	; 0x905
 358:	07040200 	streq	r0, [r4, -r0, lsl #4]
 35c:	000000cd 	andeq	r0, r0, sp, asr #1
 360:	00018303 	andeq	r8, r1, r3, lsl #6
 364:	4f060300 	svcmi	0x00060300
 368:	05000000 	streq	r0, [r0, #-0]
 36c:	0001b601 	andeq	fp, r1, r1, lsl #12
 370:	01260100 	teqeq	r6, r0, lsl #2
 374:	000000de 	ldrdeq	r0, [r0], -lr
 378:	00008298 	muleq	r0, r8, r2
 37c:	000083e0 	andeq	r8, r0, r0, ror #7
 380:	00000150 	andeq	r0, r0, r0, asr r1
 384:	0000de01 	andeq	sp, r0, r1, lsl #28
 388:	028e0600 	addeq	r0, lr, #0
 38c:	26010000 	strcs	r0, [r1], -r0
 390:	00000076 	andeq	r0, r0, r6, ror r0
 394:	07649102 	strbeq	r9, [r4, -r2, lsl #2]!
 398:	0000021f 	andeq	r0, r0, pc, lsl r2
 39c:	00de2801 	sbcseq	r2, lr, r1, lsl #16
 3a0:	91020000 	mrsls	r0, (UNDEF: 2)
 3a4:	02450774 	subeq	r0, r5, #30408704	; 0x1d00000
 3a8:	32010000 	andcc	r0, r1, #0
 3ac:	00000068 	andeq	r0, r0, r8, rrx
 3b0:	08709102 	ldmdaeq	r0!, {r1, r8, ip, pc}^
 3b4:	00000000 	andeq	r0, r0, r0
 3b8:	0001f907 	andeq	pc, r1, r7, lsl #18
 3bc:	76350100 	ldrtvc	r0, [r5], -r0, lsl #2
 3c0:	02000000 	andeq	r0, r0, #0
 3c4:	00006c91 	muleq	r0, r1, ip
 3c8:	00760409 	rsbseq	r0, r6, r9, lsl #8
 3cc:	01050000 	mrseq	r0, (UNDEF: 5)
 3d0:	000001a2 	andeq	r0, r0, r2, lsr #3
 3d4:	68014a01 	stmdavs	r1, {r0, r9, fp, lr}
 3d8:	e0000000 	and	r0, r0, r0
 3dc:	38000083 	stmdacc	r0, {r0, r1, r7}
 3e0:	7c000084 	stcvc	0, cr0, [r0], {132}	; 0x84
 3e4:	01000001 	tsteq	r0, r1
 3e8:	00000111 	andeq	r0, r0, r1, lsl r1
 3ec:	00020906 	andeq	r0, r2, r6, lsl #18
 3f0:	de4a0100 	dvflee	f0, f2, f0
 3f4:	02000000 	andeq	r0, r0, #0
 3f8:	0a007491 	beq	1d644 <_bss_end+0x12644>
 3fc:	0001c501 	andeq	ip, r1, r1, lsl #10
 400:	015b0100 	cmpeq	fp, r0, lsl #2
 404:	00008438 	andeq	r8, r0, r8, lsr r4
 408:	000084b8 			; <UNDEFINED> instruction: 0x000084b8
 40c:	000001a8 	andeq	r0, r0, r8, lsr #3
 410:	00013a01 	andeq	r3, r1, r1, lsl #20
 414:	02090600 	andeq	r0, r9, #0
 418:	5b010000 	blpl	40420 <_bss_end+0x35420>
 41c:	000000de 	ldrdeq	r0, [r0], -lr
 420:	007c9102 	rsbseq	r9, ip, r2, lsl #2
 424:	01ec010a 	mvneq	r0, sl, lsl #2
 428:	6a010000 	bvs	40430 <_bss_end+0x35430>
 42c:	0084b801 	addeq	fp, r4, r1, lsl #16
 430:	00855c00 	addeq	r5, r5, r0, lsl #24
 434:	0001c800 	andeq	ip, r1, r0, lsl #16
 438:	01710100 	cmneq	r1, r0, lsl #2
 43c:	09060000 	stmdbeq	r6, {}	; <UNPREDICTABLE>
 440:	01000002 	tsteq	r0, r2
 444:	0000de6a 	andeq	sp, r0, sl, ror #28
 448:	7c910200 	lfmvc	f0, 4, [r1], {0}
 44c:	00028e06 	andeq	r8, r2, r6, lsl #28
 450:	766a0100 	strbtvc	r0, [sl], -r0, lsl #2
 454:	02000000 	andeq	r0, r0, #0
 458:	0a007891 	beq	1e6a4 <_bss_end+0x136a4>
 45c:	00023101 	andeq	r3, r2, r1, lsl #2
 460:	01750100 	cmneq	r5, r0, lsl #2
 464:	0000855c 	andeq	r8, r0, ip, asr r5
 468:	00008598 	muleq	r0, r8, r5
 46c:	000001e8 	andeq	r0, r0, r8, ror #3
 470:	00019a01 	andeq	r9, r1, r1, lsl #20
 474:	02090600 	andeq	r0, r9, #0
 478:	75010000 	strvc	r0, [r1, #-0]
 47c:	000000de 	ldrdeq	r0, [r0], -lr
 480:	007c9102 	rsbseq	r9, ip, r2, lsl #2
 484:	0000410b 	andeq	r4, r0, fp, lsl #2
 488:	0001ab00 	andeq	sl, r1, r0, lsl #22
 48c:	01ab0c00 			; <UNDEFINED> instruction: 0x01ab0c00
 490:	07ff0000 	ldrbeq	r0, [pc, r0]!
 494:	07040200 	streq	r0, [r4, -r0, lsl #4]
 498:	00000216 	andeq	r0, r0, r6, lsl r2
 49c:	0002110d 	andeq	r1, r2, sp, lsl #2
 4a0:	9a180100 	bls	6008a8 <_bss_end+0x5f58a8>
 4a4:	01000001 	tsteq	r0, r1
 4a8:	a0080305 	andge	r0, r8, r5, lsl #6
 4ac:	940d0000 	strls	r0, [sp], #-0
 4b0:	01000001 	tsteq	r0, r1
 4b4:	0000681e 	andeq	r6, r0, lr, lsl r8
 4b8:	03050100 	movweq	r0, #20736	; 0x5100
 4bc:	0000a004 	andeq	sl, r0, r4
 4c0:	00014100 	andeq	r4, r1, r0, lsl #2
 4c4:	27000200 	strcs	r0, [r0, -r0, lsl #4]
 4c8:	04000002 	streq	r0, [r0], #-2
 4cc:	0000ee01 	andeq	lr, r0, r1, lsl #28
 4d0:	024d0100 	subeq	r0, sp, #0
 4d4:	002b0000 	eoreq	r0, fp, r0
 4d8:	85980000 	ldrhi	r0, [r8]
 4dc:	865c0000 	ldrbhi	r0, [ip], -r0
 4e0:	02700000 	rsbseq	r0, r0, #0
 4e4:	01020000 	mrseq	r0, (UNDEF: 2)
 4e8:	00007306 	andeq	r7, r0, r6, lsl #6
 4ec:	05020200 	streq	r0, [r2, #-512]	; 0x200
 4f0:	000000fa 	strdeq	r0, [r0], -sl
 4f4:	e5050402 	str	r0, [r5, #-1026]	; 0x402
 4f8:	02000000 	andeq	r0, r0, #0
 4fc:	00e00508 	rsceq	r0, r0, r8, lsl #10
 500:	01020000 	mrseq	r0, (UNDEF: 2)
 504:	00007108 	andeq	r7, r0, r8, lsl #2
 508:	07020200 	streq	r0, [r2, -r0, lsl #4]
 50c:	0000007f 	andeq	r0, r0, pc, ror r0
 510:	00010903 	andeq	r0, r1, r3, lsl #18
 514:	5a340200 	bpl	d00d1c <_bss_end+0xcf5d1c>
 518:	02000000 	andeq	r0, r0, #0
 51c:	00c80704 	sbceq	r0, r8, r4, lsl #14
 520:	08020000 	stmdaeq	r2, {}	; <UNPREDICTABLE>
 524:	0000c307 	andeq	ip, r0, r7, lsl #6
 528:	05040400 	streq	r0, [r4, #-1024]	; 0x400
 52c:	00746e69 	rsbseq	r6, r4, r9, ror #28
 530:	cd070402 	cfstrsgt	mvf0, [r7, #-8]
 534:	05000000 	streq	r0, [r0, #-0]
 538:	910f0301 	tstls	pc, r1, lsl #6
 53c:	06000000 	streq	r0, [r0], -r0
 540:	000000da 	ldrdeq	r0, [r0], -sl
 544:	01120600 	tsteq	r2, r0, lsl #12
 548:	06010000 	streq	r0, [r1], -r0
 54c:	0000011f 	andeq	r0, r0, pc, lsl r1
 550:	a1030002 	tstge	r3, r2
 554:	03000000 	movweq	r0, #0
 558:	0000760f 	andeq	r7, r0, pc, lsl #12
 55c:	00200700 	eoreq	r0, r0, r0, lsl #14
 560:	03180000 	tsteq	r8, #0
 564:	0000fb13 	andeq	pc, r0, r3, lsl fp	; <UNPREDICTABLE>
 568:	70730800 	rsbsvc	r0, r3, r0, lsl #16
 56c:	fb150300 	blx	541176 <_bss_end+0x536176>
 570:	02000000 	andeq	r0, r0, #0
 574:	6c080023 	stcvs	0, cr0, [r8], {35}	; 0x23
 578:	16030072 			; <UNDEFINED> instruction: 0x16030072
 57c:	0000006f 	andeq	r0, r0, pc, rrx
 580:	09042302 	stmdbeq	r4, {r1, r8, r9, sp}
 584:	00000104 	andeq	r0, r0, r4, lsl #2
 588:	01012703 	tsteq	r1, r3, lsl #14
 58c:	23020000 	movwcs	r0, #8192	; 0x2000
 590:	00920908 	addseq	r0, r2, r8, lsl #18
 594:	29030000 	stmdbcs	r3, {}	; <UNPREDICTABLE>
 598:	00000103 	andeq	r0, r0, r3, lsl #2
 59c:	090c2302 	stmdbeq	ip, {r1, r8, r9, sp}
 5a0:	0000011a 	andeq	r0, r0, sl, lsl r1
 5a4:	01032a03 	tsteq	r3, r3, lsl #20
 5a8:	23020000 	movwcs	r0, #8192	; 0x2000
 5ac:	00bb0910 	adcseq	r0, fp, r0, lsl r9
 5b0:	2c030000 	stccs	0, cr0, [r3], {-0}
 5b4:	00000091 	muleq	r0, r1, r0
 5b8:	00142302 	andseq	r2, r4, r2, lsl #6
 5bc:	004f040a 	subeq	r0, pc, sl, lsl #8
 5c0:	040b0000 	streq	r0, [fp], #-0
 5c4:	009c040a 	addseq	r0, ip, sl, lsl #8
 5c8:	010c0000 	mrseq	r0, (UNDEF: 12)
 5cc:	0000025a 	andeq	r0, r0, sl, asr r2
 5d0:	85982c01 	ldrhi	r2, [r8, #3073]	; 0xc01
 5d4:	86040000 	strhi	r0, [r4], -r0
 5d8:	7d020000 	stcvc	0, cr0, [r2, #-0]
 5dc:	010d0100 	mrseq	r0, (UNDEF: 29)
 5e0:	0000026c 	andeq	r0, r0, ip, ror #4
 5e4:	86043f01 	strhi	r3, [r4], -r1, lsl #30
 5e8:	865c0000 	ldrbhi	r0, [ip], -r0
 5ec:	02080000 	andeq	r0, r8, #0
 5f0:	0e010000 	cdpeq	0, 0, cr0, cr1, cr0, {0}
 5f4:	000000ab 	andeq	r0, r0, fp, lsr #1
 5f8:	01033203 	tsteq	r3, r3, lsl #4
 5fc:	05010000 	streq	r0, [r1, #-0]
 600:	00a00003 	adceq	r0, r0, r3
 604:	01a50000 			; <UNDEFINED> instruction: 0x01a50000
 608:	00020000 	andeq	r0, r2, r0
 60c:	000002ee 	andeq	r0, r0, lr, ror #5
 610:	00ee0104 	rsceq	r0, lr, r4, lsl #2
 614:	7e010000 	cdpvc	0, 0, cr0, cr1, cr0, {0}
 618:	2b000002 	blcs	628 <_start-0x79d8>
 61c:	5c000000 	stcpl	0, cr0, [r0], {-0}
 620:	f8000086 			; <UNDEFINED> instruction: 0xf8000086
 624:	1b000086 	blne	844 <_start-0x77bc>
 628:	02000003 	andeq	r0, r0, #3
 62c:	00730601 	rsbseq	r0, r3, r1, lsl #12
 630:	02020000 	andeq	r0, r2, #0
 634:	0000fa05 	andeq	pc, r0, r5, lsl #20
 638:	05040200 	streq	r0, [r4, #-512]	; 0x200
 63c:	000000e5 	andeq	r0, r0, r5, ror #1
 640:	e0050802 	and	r0, r5, r2, lsl #16
 644:	02000000 	andeq	r0, r0, #0
 648:	00710801 	rsbseq	r0, r1, r1, lsl #16
 64c:	02020000 	andeq	r0, r2, #0
 650:	00007f07 	andeq	r7, r0, r7, lsl #30
 654:	01090300 	mrseq	r0, (UNDEF: 57)
 658:	34020000 	strcc	r0, [r2], #-0
 65c:	0000005a 	andeq	r0, r0, sl, asr r0
 660:	c8070402 	stmdagt	r7, {r1, sl}
 664:	02000000 	andeq	r0, r0, #0
 668:	00c30708 	sbceq	r0, r3, r8, lsl #14
 66c:	04040000 	streq	r0, [r4], #-0
 670:	746e6905 	strbtvc	r6, [lr], #-2309	; 0x905
 674:	07040200 	streq	r0, [r4, -r0, lsl #4]
 678:	000000cd 	andeq	r0, r0, sp, asr #1
 67c:	00027703 	andeq	r7, r2, r3, lsl #14
 680:	810a0300 	mrshi	r0, (UNDEF: 58)
 684:	05000000 	streq	r0, [r0, #-0]
 688:	00008704 	andeq	r8, r0, r4, lsl #14
 68c:	07010600 	streq	r0, [r1, -r0, lsl #12]
 690:	a40f0301 	strge	r0, [pc], #-769	; 698 <_start-0x7968>
 694:	08000000 	stmdaeq	r0, {}	; <UNPREDICTABLE>
 698:	000000da 	ldrdeq	r0, [r0], -sl
 69c:	01120800 	tsteq	r2, r0, lsl #16
 6a0:	08010000 	stmdaeq	r1, {}	; <UNPREDICTABLE>
 6a4:	0000011f 	andeq	r0, r0, pc, lsl r1
 6a8:	a1030002 	tstge	r3, r2
 6ac:	03000000 	movweq	r0, #0
 6b0:	0000890f 	andeq	r8, r0, pc, lsl #18
 6b4:	00200900 	eoreq	r0, r0, r0, lsl #18
 6b8:	03180000 	tsteq	r8, #0
 6bc:	00010e13 	andeq	r0, r1, r3, lsl lr
 6c0:	70730a00 	rsbsvc	r0, r3, r0, lsl #20
 6c4:	0e150300 	cdpeq	3, 1, cr0, cr5, cr0, {0}
 6c8:	02000001 	andeq	r0, r0, #1
 6cc:	6c0a0023 	stcvs	0, cr0, [sl], {35}	; 0x23
 6d0:	16030072 			; <UNDEFINED> instruction: 0x16030072
 6d4:	0000006f 	andeq	r0, r0, pc, rrx
 6d8:	0b042302 	bleq	1092e8 <_bss_end+0xfe2e8>
 6dc:	00000104 	andeq	r0, r0, r4, lsl #2
 6e0:	01142703 	tsteq	r4, r3, lsl #14
 6e4:	23020000 	movwcs	r0, #8192	; 0x2000
 6e8:	00920b08 	addseq	r0, r2, r8, lsl #22
 6ec:	29030000 	stmdbcs	r3, {}	; <UNPREDICTABLE>
 6f0:	00000116 	andeq	r0, r0, r6, lsl r1
 6f4:	0b0c2302 	bleq	309304 <_bss_end+0x2fe304>
 6f8:	0000011a 	andeq	r0, r0, sl, lsl r1
 6fc:	01162a03 	tsteq	r6, r3, lsl #20
 700:	23020000 	movwcs	r0, #8192	; 0x2000
 704:	00bb0b10 	adcseq	r0, fp, r0, lsl fp
 708:	2c030000 	stccs	0, cr0, [r3], {-0}
 70c:	000000a4 	andeq	r0, r0, r4, lsr #1
 710:	00142302 	andseq	r2, r4, r2, lsl #6
 714:	004f0405 	subeq	r0, pc, r5, lsl #8
 718:	040c0000 	streq	r0, [ip], #-0
 71c:	00af0405 	adceq	r0, pc, r5, lsl #8
 720:	010d0000 	mrseq	r0, (UNDEF: 13)
 724:	0000029c 	muleq	r0, ip, r2
 728:	5c010501 	cfstr32pl	mvfx0, [r1], {1}
 72c:	d4000086 	strle	r0, [r0], #-134	; 0x86
 730:	28000086 	stmdacs	r0, {r1, r2, r7}
 734:	01000002 	tsteq	r0, r2
 738:	0000016d 	andeq	r0, r0, sp, ror #2
 73c:	6263700e 	rsbvs	r7, r3, #14
 740:	16050100 	strne	r0, [r5], -r0, lsl #2
 744:	02000001 	andeq	r0, r0, #1
 748:	660e7491 			; <UNDEFINED> instruction: 0x660e7491
 74c:	76050100 	strvc	r0, [r5], -r0, lsl #2
 750:	02000000 	andeq	r0, r0, #0
 754:	040f7091 	streq	r7, [pc], #-145	; 75c <_start-0x78a4>
 758:	01000001 	tsteq	r0, r1
 75c:	00011405 	andeq	r1, r1, r5, lsl #8
 760:	6c910200 	lfmvs	f0, 4, [r1], {0}
 764:	0002880f 	andeq	r8, r2, pc, lsl #16
 768:	6f050100 	svcvs	0x00050100
 76c:	02000000 	andeq	r0, r0, #0
 770:	0d006891 	stceq	8, cr6, [r0, #-580]	; 0xfffffdbc
 774:	00029301 	andeq	r9, r2, r1, lsl #6
 778:	010e0100 	mrseq	r0, (UNDEF: 30)
 77c:	000086d4 	ldrdeq	r8, [r0], -r4
 780:	000086f8 	strdeq	r8, [r0], -r8	; <UNPREDICTABLE>
 784:	00000254 	andeq	r0, r0, r4, asr r2
 788:	00019601 	andeq	r9, r1, r1, lsl #12
 78c:	63700e00 	cmnvs	r0, #0
 790:	0e010062 	cdpeq	0, 0, cr0, cr1, cr2, {3}
 794:	00000116 	andeq	r0, r0, r6, lsl r1
 798:	00749102 	rsbseq	r9, r4, r2, lsl #2
 79c:	0000ab10 	andeq	sl, r0, r0, lsl fp
 7a0:	16320300 	ldrtne	r0, [r2], -r0, lsl #6
 7a4:	01000001 	tsteq	r0, r1
 7a8:	a0000305 	andge	r0, r0, r5, lsl #6
 7ac:	d2000000 	andle	r0, r0, #0
 7b0:	02000001 	andeq	r0, r0, #1
 7b4:	0003c800 	andeq	ip, r3, r0, lsl #16
 7b8:	ee010400 	cfcpys	mvf0, mvf1
 7bc:	01000000 	mrseq	r0, (UNDEF: 0)
 7c0:	000002a5 	andeq	r0, r0, r5, lsr #5
 7c4:	0000002b 	andeq	r0, r0, fp, lsr #32
 7c8:	000086f8 	strdeq	r8, [r0], -r8	; <UNPREDICTABLE>
 7cc:	000088e4 	andeq	r8, r0, r4, ror #17
 7d0:	000003ba 			; <UNDEFINED> instruction: 0x000003ba
 7d4:	73060102 	movwvc	r0, #24834	; 0x6102
 7d8:	02000000 	andeq	r0, r0, #0
 7dc:	00fa0502 	rscseq	r0, sl, r2, lsl #10
 7e0:	04020000 	streq	r0, [r2], #-0
 7e4:	0000e505 	andeq	lr, r0, r5, lsl #10
 7e8:	05080200 	streq	r0, [r8, #-512]	; 0x200
 7ec:	000000e0 	andeq	r0, r0, r0, ror #1
 7f0:	71080102 	tstvc	r8, r2, lsl #2
 7f4:	02000000 	andeq	r0, r0, #0
 7f8:	007f0702 	rsbseq	r0, pc, r2, lsl #14
 7fc:	09030000 	stmdbeq	r3, {}	; <UNPREDICTABLE>
 800:	02000001 	andeq	r0, r0, #1
 804:	00005a34 	andeq	r5, r0, r4, lsr sl
 808:	07040200 	streq	r0, [r4, -r0, lsl #4]
 80c:	000000c8 	andeq	r0, r0, r8, asr #1
 810:	c3070802 	movwgt	r0, #30722	; 0x7802
 814:	04000000 	streq	r0, [r0], #-0
 818:	6e690504 	cdpvs	5, 6, cr0, cr9, cr4, {0}
 81c:	04020074 	streq	r0, [r2], #-116	; 0x74
 820:	0000cd07 	andeq	ip, r0, r7, lsl #26
 824:	02770300 	rsbseq	r0, r7, #0
 828:	0a030000 	beq	c0830 <_bss_end+0xb5830>
 82c:	00000081 	andeq	r0, r0, r1, lsl #1
 830:	00870405 	addeq	r0, r7, r5, lsl #8
 834:	01060000 	mrseq	r0, (UNDEF: 6)
 838:	0f030107 	svceq	0x00030107
 83c:	000000a4 	andeq	r0, r0, r4, lsr #1
 840:	0000da08 	andeq	sp, r0, r8, lsl #20
 844:	12080000 	andne	r0, r8, #0
 848:	01000001 	tsteq	r0, r1
 84c:	00011f08 	andeq	r1, r1, r8, lsl #30
 850:	03000200 	movweq	r0, #512	; 0x200
 854:	000000a1 	andeq	r0, r0, r1, lsr #1
 858:	00890f03 	addeq	r0, r9, r3, lsl #30
 85c:	20090000 	andcs	r0, r9, r0
 860:	18000000 	stmdane	r0, {}	; <UNPREDICTABLE>
 864:	010e1303 	tsteq	lr, r3, lsl #6
 868:	730a0000 	movwvc	r0, #40960	; 0xa000
 86c:	15030070 	strne	r0, [r3, #-112]	; 0x70
 870:	0000010e 	andeq	r0, r0, lr, lsl #2
 874:	0a002302 	beq	9484 <STACK_SIZE+0x480>
 878:	0300726c 	movweq	r7, #620	; 0x26c
 87c:	00006f16 	andeq	r6, r0, r6, lsl pc
 880:	04230200 	strteq	r0, [r3], #-512	; 0x200
 884:	0001040b 	andeq	r0, r1, fp, lsl #8
 888:	14270300 	strtne	r0, [r7], #-768	; 0x300
 88c:	02000001 	andeq	r0, r0, #1
 890:	920b0823 	andls	r0, fp, #2293760	; 0x230000
 894:	03000000 	movweq	r0, #0
 898:	00011629 	andeq	r1, r1, r9, lsr #12
 89c:	0c230200 	sfmeq	f0, 4, [r3], #-0
 8a0:	00011a0b 	andeq	r1, r1, fp, lsl #20
 8a4:	162a0300 	strtne	r0, [sl], -r0, lsl #6
 8a8:	02000001 	andeq	r0, r0, #1
 8ac:	bb0b1023 	bllt	2c4940 <_bss_end+0x2b9940>
 8b0:	03000000 	movweq	r0, #0
 8b4:	0000a42c 	andeq	sl, r0, ip, lsr #8
 8b8:	14230200 	strtne	r0, [r3], #-512	; 0x200
 8bc:	4f040500 	svcmi	0x00040500
 8c0:	0c000000 	stceq	0, cr0, [r0], {-0}
 8c4:	af040504 	svcge	0x00040504
 8c8:	0d000000 	stceq	0, cr0, [r0, #-0]
 8cc:	0002c401 	andeq	ip, r2, r1, lsl #8
 8d0:	01030100 	mrseq	r0, (UNDEF: 19)
 8d4:	000086f8 	strdeq	r8, [r0], -r8	; <UNPREDICTABLE>
 8d8:	000087d8 	ldrdeq	r8, [r0], -r8	; <UNPREDICTABLE>
 8dc:	00000280 	andeq	r0, r0, r0, lsl #5
 8e0:	00016e01 	andeq	r6, r1, r1, lsl #28
 8e4:	00660e00 	rsbeq	r0, r6, r0, lsl #28
 8e8:	00760301 	rsbseq	r0, r6, r1, lsl #6
 8ec:	91020000 	mrsls	r0, (UNDEF: 2)
 8f0:	01040f6c 	tsteq	r4, ip, ror #30
 8f4:	03010000 	movweq	r0, #4096	; 0x1000
 8f8:	00000114 	andeq	r0, r0, r4, lsl r1
 8fc:	10689102 	rsbne	r9, r8, r2, lsl #2
 900:	00626370 	rsbeq	r6, r2, r0, ror r3
 904:	01160501 	tsteq	r6, r1, lsl #10
 908:	91020000 	mrsls	r0, (UNDEF: 2)
 90c:	b6011174 			; <UNDEFINED> instruction: 0xb6011174
 910:	01000001 	tsteq	r0, r1
 914:	00006805 	andeq	r6, r0, r5, lsl #16
 918:	00120100 	andseq	r0, r2, r0, lsl #2
 91c:	be011300 	cdplt	3, 0, cr1, cr1, cr0, {0}
 920:	01000002 	tsteq	r0, r2
 924:	0087d81b 	addeq	sp, r7, fp, lsl r8
 928:	00882000 	addeq	r2, r8, r0
 92c:	0002ac00 	andeq	sl, r2, r0, lsl #24
 930:	01130100 	tsteq	r3, r0, lsl #2
 934:	000002b9 			; <UNDEFINED> instruction: 0x000002b9
 938:	88202b01 	stmdahi	r0!, {r0, r8, r9, fp, sp}
 93c:	88d80000 	ldmhi	r8, {}^	; <UNPREDICTABLE>
 940:	02cc0000 	sbceq	r0, ip, #0
 944:	13010000 	movwne	r0, #4096	; 0x1000
 948:	0002ad01 	andeq	sl, r2, r1, lsl #26
 94c:	d8440100 	stmdale	r4, {r8}^
 950:	e4000088 	str	r0, [r0], #-136	; 0x88
 954:	ec000088 	stc	0, cr0, [r0], {136}	; 0x88
 958:	01000002 	tsteq	r0, r2
 95c:	00000b14 	andeq	r0, r0, r4, lsl fp
 960:	be0d0400 	cfcpyslt	mvf0, mvf13
 964:	05000001 	streq	r0, [r0, #-1]
 968:	00900403 	addseq	r0, r0, r3, lsl #8
 96c:	006f1500 	rsbeq	r1, pc, r0, lsl #10
 970:	ab160000 	blge	580978 <_bss_end+0x575978>
 974:	03000000 	movweq	r0, #0
 978:	00011632 	andeq	r1, r1, r2, lsr r6
 97c:	03050100 	movweq	r0, #20736	; 0x5100
 980:	0000a000 	andeq	sl, r0, r0
	...

Disassembly of section .debug_abbrev:

00000000 <.debug_abbrev>:
   0:	10001101 	andne	r1, r0, r1, lsl #2
   4:	12011106 	andne	r1, r1, #-2147483647	; 0x80000001
   8:	1b080301 	blne	200c14 <_bss_end+0x1f5c14>
   c:	13082508 	movwne	r2, #34056	; 0x8508
  10:	00000005 	andeq	r0, r0, r5
  14:	25011101 	strcs	r1, [r1, #-257]	; 0x101
  18:	030b130e 	movweq	r1, #45838	; 0xb30e
  1c:	110e1b0e 	tstne	lr, lr, lsl #22
  20:	10011201 	andne	r1, r1, r1, lsl #4
  24:	02000006 	andeq	r0, r0, #6
  28:	0b0b0024 	bleq	2c00c0 <_bss_end+0x2b50c0>
  2c:	0e030b3e 	vmoveq.16	d3[0], r0
  30:	16030000 	strne	r0, [r3], -r0
  34:	3a0e0300 	bcc	380c3c <_bss_end+0x375c3c>
  38:	490b3b0b 	stmdbmi	fp, {r0, r1, r3, r8, r9, fp, ip, sp}
  3c:	04000013 	streq	r0, [r0], #-19
  40:	0b0b0024 	bleq	2c00d8 <_bss_end+0x2b50d8>
  44:	08030b3e 	stmdaeq	r3, {r1, r2, r3, r4, r5, r8, r9, fp}
  48:	04050000 	streq	r0, [r5], #-0
  4c:	3a0b0b01 	bcc	2c2c58 <_bss_end+0x2b7c58>
  50:	010b3b0b 	tsteq	fp, fp, lsl #22
  54:	06000013 			; <UNDEFINED> instruction: 0x06000013
  58:	0e030028 	cdpeq	0, 0, cr0, cr3, cr8, {1}
  5c:	00000d1c 	andeq	r0, r0, ip, lsl sp
  60:	03011307 	movweq	r1, #4871	; 0x1307
  64:	3a0b0b0e 	bcc	2c2ca4 <_bss_end+0x2b7ca4>
  68:	010b3b0b 	tsteq	fp, fp, lsl #22
  6c:	08000013 	stmdaeq	r0, {r0, r1, r4}
  70:	0803000d 	stmdaeq	r3, {r0, r2, r3}
  74:	0b3b0b3a 	bleq	ec2d64 <_bss_end+0xeb7d64>
  78:	0a381349 	beq	e04da4 <_bss_end+0xdf9da4>
  7c:	0d090000 	stceq	0, cr0, [r9, #-0]
  80:	3a0e0300 	bcc	380c88 <_bss_end+0x375c88>
  84:	490b3b0b 	stmdbmi	fp, {r0, r1, r3, r8, r9, fp, ip, sp}
  88:	000a3813 	andeq	r3, sl, r3, lsl r8
  8c:	000f0a00 	andeq	r0, pc, r0, lsl #20
  90:	13490b0b 	movtne	r0, #39691	; 0x9b0b
  94:	0f0b0000 	svceq	0x000b0000
  98:	000b0b00 	andeq	r0, fp, r0, lsl #22
  9c:	012e0c00 	teqeq	lr, r0, lsl #24
  a0:	0e030c3f 	mcreq	12, 0, r0, cr3, cr15, {1}
  a4:	0b3b0b3a 	bleq	ec2d94 <_bss_end+0xeb7d94>
  a8:	01120111 	tsteq	r2, r1, lsl r1
  ac:	42960640 	addsmi	r0, r6, #67108864	; 0x4000000
  b0:	0013010c 	andseq	r0, r3, ip, lsl #2
  b4:	00340d00 	eorseq	r0, r4, r0, lsl #26
  b8:	0b3a0e03 	bleq	e838cc <_bss_end+0xe788cc>
  bc:	13490b3b 	movtne	r0, #39739	; 0x9b3b
  c0:	00000a02 	andeq	r0, r0, r2, lsl #20
  c4:	3f002e0e 	svccc	0x00002e0e
  c8:	3a0e030c 	bcc	380d00 <_bss_end+0x375d00>
  cc:	270b3b0b 	strcs	r3, [fp, -fp, lsl #22]
  d0:	1113490c 	tstne	r3, ip, lsl #18
  d4:	40011201 	andmi	r1, r1, r1, lsl #4
  d8:	0c429606 	mcrreq	6, 0, r9, r2, cr6
  dc:	260f0000 	strcs	r0, [pc], -r0
  e0:	00134900 	andseq	r4, r3, r0, lsl #18
  e4:	00341000 	eorseq	r1, r4, r0
  e8:	0b3a0e03 	bleq	e838fc <_bss_end+0xe788fc>
  ec:	13490b3b 	movtne	r0, #39739	; 0x9b3b
  f0:	0a020c3f 	beq	831f4 <_bss_end+0x781f4>
  f4:	01000000 	mrseq	r0, (UNDEF: 0)
  f8:	0e250111 	mcreq	1, 1, r0, cr5, cr1, {0}
  fc:	0e030b13 	vmoveq.32	d3[0], r0
 100:	01110e1b 	tsteq	r1, fp, lsl lr
 104:	06100112 			; <UNDEFINED> instruction: 0x06100112
 108:	2e020000 	cdpcs	0, 0, cr0, cr2, cr0, {0}
 10c:	030c3f00 	movweq	r3, #52992	; 0xcf00
 110:	3b0b3a0e 	blcc	2ce950 <_bss_end+0x2c3950>
 114:	1201110b 	andne	r1, r1, #-1073741822	; 0xc0000002
 118:	96064001 	strls	r4, [r6], -r1
 11c:	00000c42 	andeq	r0, r0, r2, asr #24
 120:	3f012e03 	svccc	0x00012e03
 124:	3a0e030c 	bcc	380d5c <_bss_end+0x375d5c>
 128:	110b3b0b 	tstne	fp, fp, lsl #22
 12c:	40011201 	andmi	r1, r1, r1, lsl #4
 130:	0c429606 	mcrreq	6, 0, r9, r2, cr6
 134:	00001301 	andeq	r1, r0, r1, lsl #6
 138:	03003404 	movweq	r3, #1028	; 0x404
 13c:	3b0b3a08 	blcc	2ce964 <_bss_end+0x2c3964>
 140:	0213490b 	andseq	r4, r3, #180224	; 0x2c000
 144:	0500000a 	streq	r0, [r0, #-10]
 148:	0b0b0024 	bleq	2c01e0 <_bss_end+0x2b51e0>
 14c:	0e030b3e 	vmoveq.16	d3[0], r0
 150:	2e060000 	cdpcs	0, 0, cr0, cr6, cr0, {0}
 154:	030c3f01 	movweq	r3, #52993	; 0xcf01
 158:	3b0b3a0e 	blcc	2ce998 <_bss_end+0x2c3998>
 15c:	1201110b 	andne	r1, r1, #-1073741822	; 0xc0000002
 160:	96064001 	strls	r4, [r6], -r1
 164:	00000c42 	andeq	r0, r0, r2, asr #24
 168:	01110100 	tsteq	r1, r0, lsl #2
 16c:	0b130e25 	bleq	4c3a08 <_bss_end+0x4b8a08>
 170:	0e1b0e03 	cdpeq	14, 1, cr0, cr11, cr3, {0}
 174:	01120111 	tsteq	r2, r1, lsl r1
 178:	00000610 	andeq	r0, r0, r0, lsl r6
 17c:	0b002402 	bleq	918c <STACK_SIZE+0x188>
 180:	030b3e0b 	movweq	r3, #48651	; 0xbe0b
 184:	0300000e 	movweq	r0, #14
 188:	0e030016 	mcreq	0, 0, r0, cr3, cr6, {0}
 18c:	0b3b0b3a 	bleq	ec2e7c <_bss_end+0xeb7e7c>
 190:	00001349 	andeq	r1, r0, r9, asr #6
 194:	0b002404 	bleq	91ac <STACK_SIZE+0x1a8>
 198:	030b3e0b 	movweq	r3, #48651	; 0xbe0b
 19c:	05000008 	streq	r0, [r0, #-8]
 1a0:	0c3f012e 	ldfeqs	f0, [pc], #-184	; f0 <_start-0x7f10>
 1a4:	0b3a0e03 	bleq	e839b8 <_bss_end+0xe789b8>
 1a8:	0c270b3b 	stceq	11, cr0, [r7], #-236	; 0xffffff14
 1ac:	01111349 	tsteq	r1, r9, asr #6
 1b0:	06400112 			; <UNDEFINED> instruction: 0x06400112
 1b4:	010c4296 			; <UNDEFINED> instruction: 0x010c4296
 1b8:	06000013 			; <UNDEFINED> instruction: 0x06000013
 1bc:	0e030005 	cdpeq	0, 0, cr0, cr3, cr5, {0}
 1c0:	0b3b0b3a 	bleq	ec2eb0 <_bss_end+0xeb7eb0>
 1c4:	0a021349 	beq	84ef0 <_bss_end+0x79ef0>
 1c8:	34070000 	strcc	r0, [r7], #-0
 1cc:	3a0e0300 	bcc	380dd4 <_bss_end+0x375dd4>
 1d0:	490b3b0b 	stmdbmi	fp, {r0, r1, r3, r8, r9, fp, ip, sp}
 1d4:	000a0213 	andeq	r0, sl, r3, lsl r2
 1d8:	010b0800 	tsteq	fp, r0, lsl #16
 1dc:	00000655 	andeq	r0, r0, r5, asr r6
 1e0:	0b000f09 	bleq	3e0c <_start-0x41f4>
 1e4:	0013490b 	andseq	r4, r3, fp, lsl #18
 1e8:	012e0a00 	teqeq	lr, r0, lsl #20
 1ec:	0e030c3f 	mcreq	12, 0, r0, cr3, cr15, {1}
 1f0:	0b3b0b3a 	bleq	ec2ee0 <_bss_end+0xeb7ee0>
 1f4:	01110c27 	tsteq	r1, r7, lsr #24
 1f8:	06400112 			; <UNDEFINED> instruction: 0x06400112
 1fc:	010c4297 			; <UNDEFINED> instruction: 0x010c4297
 200:	0b000013 	bleq	254 <_start-0x7dac>
 204:	13490101 	movtne	r0, #37121	; 0x9101
 208:	00001301 	andeq	r1, r0, r1, lsl #6
 20c:	4900210c 	stmdbmi	r0, {r2, r3, r8, sp}
 210:	00052f13 	andeq	r2, r5, r3, lsl pc
 214:	00340d00 	eorseq	r0, r4, r0, lsl #26
 218:	0b3a0e03 	bleq	e83a2c <_bss_end+0xe78a2c>
 21c:	13490b3b 	movtne	r0, #39739	; 0x9b3b
 220:	0a020c3f 	beq	83324 <_bss_end+0x78324>
 224:	01000000 	mrseq	r0, (UNDEF: 0)
 228:	0e250111 	mcreq	1, 1, r0, cr5, cr1, {0}
 22c:	0e030b13 	vmoveq.32	d3[0], r0
 230:	01110e1b 	tsteq	r1, fp, lsl lr
 234:	06100112 			; <UNDEFINED> instruction: 0x06100112
 238:	24020000 	strcs	r0, [r2], #-0
 23c:	3e0b0b00 	vmlacc.f64	d0, d11, d0
 240:	000e030b 	andeq	r0, lr, fp, lsl #6
 244:	00160300 	andseq	r0, r6, r0, lsl #6
 248:	0b3a0e03 	bleq	e83a5c <_bss_end+0xe78a5c>
 24c:	13490b3b 	movtne	r0, #39739	; 0x9b3b
 250:	24040000 	strcs	r0, [r4], #-0
 254:	3e0b0b00 	vmlacc.f64	d0, d11, d0
 258:	0008030b 	andeq	r0, r8, fp, lsl #6
 25c:	01040500 	tsteq	r4, r0, lsl #10
 260:	0b3a0b0b 	bleq	e82e94 <_bss_end+0xe77e94>
 264:	13010b3b 	movwne	r0, #6971	; 0x1b3b
 268:	28060000 	stmdacs	r6, {}	; <UNPREDICTABLE>
 26c:	1c0e0300 	stcne	3, cr0, [lr], {-0}
 270:	0700000d 	streq	r0, [r0, -sp]
 274:	0e030113 	mcreq	1, 0, r0, cr3, cr3, {0}
 278:	0b3a0b0b 	bleq	e82eac <_bss_end+0xe77eac>
 27c:	13010b3b 	movwne	r0, #6971	; 0x1b3b
 280:	0d080000 	stceq	0, cr0, [r8, #-0]
 284:	3a080300 	bcc	200e8c <_bss_end+0x1f5e8c>
 288:	490b3b0b 	stmdbmi	fp, {r0, r1, r3, r8, r9, fp, ip, sp}
 28c:	000a3813 	andeq	r3, sl, r3, lsl r8
 290:	000d0900 	andeq	r0, sp, r0, lsl #18
 294:	0b3a0e03 	bleq	e83aa8 <_bss_end+0xe78aa8>
 298:	13490b3b 	movtne	r0, #39739	; 0x9b3b
 29c:	00000a38 	andeq	r0, r0, r8, lsr sl
 2a0:	0b000f0a 	bleq	3ed0 <_start-0x4130>
 2a4:	0013490b 	andseq	r4, r3, fp, lsl #18
 2a8:	000f0b00 	andeq	r0, pc, r0, lsl #22
 2ac:	00000b0b 	andeq	r0, r0, fp, lsl #22
 2b0:	3f002e0c 	svccc	0x00002e0c
 2b4:	3a0e030c 	bcc	380eec <_bss_end+0x375eec>
 2b8:	110b3b0b 	tstne	fp, fp, lsl #22
 2bc:	40011201 	andmi	r1, r1, r1, lsl #4
 2c0:	0c42970a 	mcrreq	7, 0, r9, r2, cr10
 2c4:	2e0d0000 	cdpcs	0, 0, cr0, cr13, cr0, {0}
 2c8:	030c3f00 	movweq	r3, #52992	; 0xcf00
 2cc:	3b0b3a0e 	blcc	2ceb0c <_bss_end+0x2c3b0c>
 2d0:	1201110b 	andne	r1, r1, #-1073741822	; 0xc0000002
 2d4:	96064001 	strls	r4, [r6], -r1
 2d8:	00000c42 	andeq	r0, r0, r2, asr #24
 2dc:	0300340e 	movweq	r3, #1038	; 0x40e
 2e0:	3b0b3a0e 	blcc	2ceb20 <_bss_end+0x2c3b20>
 2e4:	3f13490b 	svccc	0x0013490b
 2e8:	000a020c 	andeq	r0, sl, ip, lsl #4
 2ec:	11010000 	mrsne	r0, (UNDEF: 1)
 2f0:	130e2501 	movwne	r2, #58625	; 0xe501
 2f4:	1b0e030b 	blne	380f28 <_bss_end+0x375f28>
 2f8:	1201110e 	andne	r1, r1, #-2147483645	; 0x80000003
 2fc:	00061001 	andeq	r1, r6, r1
 300:	00240200 	eoreq	r0, r4, r0, lsl #4
 304:	0b3e0b0b 	bleq	f82f38 <_bss_end+0xf77f38>
 308:	00000e03 	andeq	r0, r0, r3, lsl #28
 30c:	03001603 	movweq	r1, #1539	; 0x603
 310:	3b0b3a0e 	blcc	2ceb50 <_bss_end+0x2c3b50>
 314:	0013490b 	andseq	r4, r3, fp, lsl #18
 318:	00240400 	eoreq	r0, r4, r0, lsl #8
 31c:	0b3e0b0b 	bleq	f82f50 <_bss_end+0xf77f50>
 320:	00000803 	andeq	r0, r0, r3, lsl #16
 324:	0b000f05 	bleq	3f40 <_start-0x40c0>
 328:	0013490b 	andseq	r4, r3, fp, lsl #18
 32c:	00150600 	andseq	r0, r5, r0, lsl #12
 330:	00000c27 	andeq	r0, r0, r7, lsr #24
 334:	0b010407 	bleq	41358 <_bss_end+0x36358>
 338:	3b0b3a0b 	blcc	2ceb6c <_bss_end+0x2c3b6c>
 33c:	0013010b 	andseq	r0, r3, fp, lsl #2
 340:	00280800 	eoreq	r0, r8, r0, lsl #16
 344:	0d1c0e03 	ldceq	14, cr0, [ip, #-12]
 348:	13090000 	movwne	r0, #36864	; 0x9000
 34c:	0b0e0301 	bleq	380f58 <_bss_end+0x375f58>
 350:	3b0b3a0b 	blcc	2ceb84 <_bss_end+0x2c3b84>
 354:	0013010b 	andseq	r0, r3, fp, lsl #2
 358:	000d0a00 	andeq	r0, sp, r0, lsl #20
 35c:	0b3a0803 	bleq	e82370 <_bss_end+0xe77370>
 360:	13490b3b 	movtne	r0, #39739	; 0x9b3b
 364:	00000a38 	andeq	r0, r0, r8, lsr sl
 368:	03000d0b 	movweq	r0, #3339	; 0xd0b
 36c:	3b0b3a0e 	blcc	2cebac <_bss_end+0x2c3bac>
 370:	3813490b 	ldmdacc	r3, {r0, r1, r3, r8, fp, lr}
 374:	0c00000a 	stceq	0, cr0, [r0], {10}
 378:	0b0b000f 	bleq	2c03bc <_bss_end+0x2b53bc>
 37c:	2e0d0000 	cdpcs	0, 0, cr0, cr13, cr0, {0}
 380:	030c3f01 	movweq	r3, #52993	; 0xcf01
 384:	3b0b3a0e 	blcc	2cebc4 <_bss_end+0x2c3bc4>
 388:	110c270b 	tstne	ip, fp, lsl #14
 38c:	40011201 	andmi	r1, r1, r1, lsl #4
 390:	0c429606 	mcrreq	6, 0, r9, r2, cr6
 394:	00001301 	andeq	r1, r0, r1, lsl #6
 398:	0300050e 	movweq	r0, #1294	; 0x50e
 39c:	3b0b3a08 	blcc	2cebc4 <_bss_end+0x2c3bc4>
 3a0:	0213490b 	andseq	r4, r3, #180224	; 0x2c000
 3a4:	0f00000a 	svceq	0x0000000a
 3a8:	0e030005 	cdpeq	0, 0, cr0, cr3, cr5, {0}
 3ac:	0b3b0b3a 	bleq	ec309c <_bss_end+0xeb809c>
 3b0:	0a021349 	beq	850dc <_bss_end+0x7a0dc>
 3b4:	34100000 	ldrcc	r0, [r0], #-0
 3b8:	3a0e0300 	bcc	380fc0 <_bss_end+0x375fc0>
 3bc:	490b3b0b 	stmdbmi	fp, {r0, r1, r3, r8, r9, fp, ip, sp}
 3c0:	020c3f13 	andeq	r3, ip, #76	; 0x4c
 3c4:	0000000a 	andeq	r0, r0, sl
 3c8:	25011101 	strcs	r1, [r1, #-257]	; 0x101
 3cc:	030b130e 	movweq	r1, #45838	; 0xb30e
 3d0:	110e1b0e 	tstne	lr, lr, lsl #22
 3d4:	10011201 	andne	r1, r1, r1, lsl #4
 3d8:	02000006 	andeq	r0, r0, #6
 3dc:	0b0b0024 	bleq	2c0474 <_bss_end+0x2b5474>
 3e0:	0e030b3e 	vmoveq.16	d3[0], r0
 3e4:	16030000 	strne	r0, [r3], -r0
 3e8:	3a0e0300 	bcc	380ff0 <_bss_end+0x375ff0>
 3ec:	490b3b0b 	stmdbmi	fp, {r0, r1, r3, r8, r9, fp, ip, sp}
 3f0:	04000013 	streq	r0, [r0], #-19
 3f4:	0b0b0024 	bleq	2c048c <_bss_end+0x2b548c>
 3f8:	08030b3e 	stmdaeq	r3, {r1, r2, r3, r4, r5, r8, r9, fp}
 3fc:	0f050000 	svceq	0x00050000
 400:	490b0b00 	stmdbmi	fp, {r8, r9, fp}
 404:	06000013 			; <UNDEFINED> instruction: 0x06000013
 408:	0c270015 	stceq	0, cr0, [r7], #-84	; 0xffffffac
 40c:	04070000 	streq	r0, [r7], #-0
 410:	3a0b0b01 	bcc	2c301c <_bss_end+0x2b801c>
 414:	010b3b0b 	tsteq	fp, fp, lsl #22
 418:	08000013 	stmdaeq	r0, {r0, r1, r4}
 41c:	0e030028 	cdpeq	0, 0, cr0, cr3, cr8, {1}
 420:	00000d1c 	andeq	r0, r0, ip, lsl sp
 424:	03011309 	movweq	r1, #4873	; 0x1309
 428:	3a0b0b0e 	bcc	2c3068 <_bss_end+0x2b8068>
 42c:	010b3b0b 	tsteq	fp, fp, lsl #22
 430:	0a000013 	beq	484 <_start-0x7b7c>
 434:	0803000d 	stmdaeq	r3, {r0, r2, r3}
 438:	0b3b0b3a 	bleq	ec3128 <_bss_end+0xeb8128>
 43c:	0a381349 	beq	e05168 <_bss_end+0xdfa168>
 440:	0d0b0000 	stceq	0, cr0, [fp, #-0]
 444:	3a0e0300 	bcc	38104c <_bss_end+0x37604c>
 448:	490b3b0b 	stmdbmi	fp, {r0, r1, r3, r8, r9, fp, ip, sp}
 44c:	000a3813 	andeq	r3, sl, r3, lsl r8
 450:	000f0c00 	andeq	r0, pc, r0, lsl #24
 454:	00000b0b 	andeq	r0, r0, fp, lsl #22
 458:	3f012e0d 	svccc	0x00012e0d
 45c:	3a0e030c 	bcc	381094 <_bss_end+0x376094>
 460:	270b3b0b 	strcs	r3, [fp, -fp, lsl #22]
 464:	1201110c 	andne	r1, r1, #3
 468:	96064001 	strls	r4, [r6], -r1
 46c:	13010c42 	movwne	r0, #7234	; 0x1c42
 470:	050e0000 	streq	r0, [lr, #-0]
 474:	3a080300 	bcc	20107c <_bss_end+0x1f607c>
 478:	490b3b0b 	stmdbmi	fp, {r0, r1, r3, r8, r9, fp, ip, sp}
 47c:	000a0213 	andeq	r0, sl, r3, lsl r2
 480:	00050f00 	andeq	r0, r5, r0, lsl #30
 484:	0b3a0e03 	bleq	e83c98 <_bss_end+0xe78c98>
 488:	13490b3b 	movtne	r0, #39739	; 0x9b3b
 48c:	00000a02 	andeq	r0, r0, r2, lsl #20
 490:	03003410 	movweq	r3, #1040	; 0x410
 494:	3b0b3a08 	blcc	2cecbc <_bss_end+0x2c3cbc>
 498:	0213490b 	andseq	r4, r3, #180224	; 0x2c000
 49c:	1100000a 	tstne	r0, sl
 4a0:	0c3f012e 	ldfeqs	f0, [pc], #-184	; 3f0 <_start-0x7c10>
 4a4:	0b3a0e03 	bleq	e83cb8 <_bss_end+0xe78cb8>
 4a8:	13490b3b 	movtne	r0, #39739	; 0x9b3b
 4ac:	00000c3c 	andeq	r0, r0, ip, lsr ip
 4b0:	00001812 	andeq	r1, r0, r2, lsl r8
 4b4:	002e1300 	eoreq	r1, lr, r0, lsl #6
 4b8:	0e030c3f 	mcreq	12, 0, r0, cr3, cr15, {1}
 4bc:	0b3b0b3a 	bleq	ec31ac <_bss_end+0xeb81ac>
 4c0:	01120111 	tsteq	r2, r1, lsl r1
 4c4:	42960640 	addsmi	r0, r6, #67108864	; 0x4000000
 4c8:	1400000c 	strne	r0, [r0], #-12
 4cc:	0e030034 	mcreq	0, 0, r0, cr3, cr4, {1}
 4d0:	0b3b0b3a 	bleq	ec31c0 <_bss_end+0xeb81c0>
 4d4:	0a021349 	beq	85200 <_bss_end+0x7a200>
 4d8:	26150000 	ldrcs	r0, [r5], -r0
 4dc:	00134900 	andseq	r4, r3, r0, lsl #18
 4e0:	00341600 	eorseq	r1, r4, r0, lsl #12
 4e4:	0b3a0e03 	bleq	e83cf8 <_bss_end+0xe78cf8>
 4e8:	13490b3b 	movtne	r0, #39739	; 0x9b3b
 4ec:	0a020c3f 	beq	835f0 <_bss_end+0x785f0>
 4f0:	Address 0x00000000000004f0 is out of bounds.


Disassembly of section .debug_aranges:

00000000 <.debug_aranges>:
   0:	0000001c 	andeq	r0, r0, ip, lsl r0
   4:	00000002 	andeq	r0, r0, r2
   8:	00040000 	andeq	r0, r4, r0
   c:	00000000 	andeq	r0, r0, r0
  10:	00008000 	andeq	r8, r0, r0
  14:	000000d0 	ldrdeq	r0, [r0], -r0	; <UNPREDICTABLE>
	...
  20:	0000001c 	andeq	r0, r0, ip, lsl r0
  24:	00760002 	rsbseq	r0, r6, r2
  28:	00040000 	andeq	r0, r4, r0
  2c:	00000000 	andeq	r0, r0, r0
  30:	000080d0 	ldrdeq	r8, [r0], -r0
  34:	00000094 	muleq	r0, r4, r0
	...
  40:	0000001c 	andeq	r0, r0, ip, lsl r0
  44:	02120002 	andseq	r0, r2, #2
  48:	00040000 	andeq	r0, r4, r0
  4c:	00000000 	andeq	r0, r0, r0
  50:	00008164 	andeq	r8, r0, r4, ror #2
  54:	00000134 	andeq	r0, r0, r4, lsr r1
	...
  60:	0000001c 	andeq	r0, r0, ip, lsl r0
  64:	02ea0002 	rsceq	r0, sl, #2
  68:	00040000 	andeq	r0, r4, r0
  6c:	00000000 	andeq	r0, r0, r0
  70:	00008298 	muleq	r0, r8, r2
  74:	00000300 	andeq	r0, r0, r0, lsl #6
	...
  80:	0000001c 	andeq	r0, r0, ip, lsl r0
  84:	04c10002 	strbeq	r0, [r1], #2
  88:	00040000 	andeq	r0, r4, r0
  8c:	00000000 	andeq	r0, r0, r0
  90:	00008598 	muleq	r0, r8, r5
  94:	000000c4 	andeq	r0, r0, r4, asr #1
	...
  a0:	0000001c 	andeq	r0, r0, ip, lsl r0
  a4:	06060002 	streq	r0, [r6], -r2
  a8:	00040000 	andeq	r0, r4, r0
  ac:	00000000 	andeq	r0, r0, r0
  b0:	0000865c 	andeq	r8, r0, ip, asr r6
  b4:	0000009c 	muleq	r0, ip, r0
	...
  c0:	0000001c 	andeq	r0, r0, ip, lsl r0
  c4:	07af0002 	streq	r0, [pc, r2]!
  c8:	00040000 	andeq	r0, r4, r0
  cc:	00000000 	andeq	r0, r0, r0
  d0:	000086f8 	strdeq	r8, [r0], -r8	; <UNPREDICTABLE>
  d4:	000001ec 	andeq	r0, r0, ip, ror #3
	...

Disassembly of section .debug_loc:

00000000 <.debug_loc>:
   0:	00000000 	andeq	r0, r0, r0
   4:	00000004 	andeq	r0, r0, r4
   8:	007d0002 	rsbseq	r0, sp, r2
   c:	00000004 	andeq	r0, r0, r4
  10:	00000008 	andeq	r0, r0, r8
  14:	047d0002 	ldrbteq	r0, [sp], #-2
  18:	00000008 	andeq	r0, r0, r8
  1c:	0000003c 	andeq	r0, r0, ip, lsr r0
  20:	107d0002 	rsbsne	r0, sp, r2
	...
  2c:	0000003c 	andeq	r0, r0, ip, lsr r0
  30:	00000040 	andeq	r0, r0, r0, asr #32
  34:	007d0002 	rsbseq	r0, sp, r2
  38:	00000040 	andeq	r0, r0, r0, asr #32
  3c:	00000044 	andeq	r0, r0, r4, asr #32
  40:	047d0002 	ldrbteq	r0, [sp], #-2
  44:	00000044 	andeq	r0, r0, r4, asr #32
  48:	00000060 	andeq	r0, r0, r0, rrx
  4c:	107d0002 	rsbsne	r0, sp, r2
	...
  58:	00000060 	andeq	r0, r0, r0, rrx
  5c:	00000064 	andeq	r0, r0, r4, rrx
  60:	007d0002 	rsbseq	r0, sp, r2
  64:	00000064 	andeq	r0, r0, r4, rrx
  68:	00000094 	muleq	r0, r4, r0
  6c:	087d0002 	ldmdaeq	sp!, {r1}^
	...
  7c:	00000004 	andeq	r0, r0, r4
  80:	007d0002 	rsbseq	r0, sp, r2
  84:	00000004 	andeq	r0, r0, r4
  88:	00000018 	andeq	r0, r0, r8, lsl r0
  8c:	087d0002 	ldmdaeq	sp!, {r1}^
	...
  98:	00000018 	andeq	r0, r0, r8, lsl r0
  9c:	0000001c 	andeq	r0, r0, ip, lsl r0
  a0:	007d0002 	rsbseq	r0, sp, r2
  a4:	0000001c 	andeq	r0, r0, ip, lsl r0
  a8:	00000030 	andeq	r0, r0, r0, lsr r0
  ac:	087d0002 	ldmdaeq	sp!, {r1}^
	...
  b8:	00000030 	andeq	r0, r0, r0, lsr r0
  bc:	00000034 	andeq	r0, r0, r4, lsr r0
  c0:	007d0002 	rsbseq	r0, sp, r2
  c4:	00000034 	andeq	r0, r0, r4, lsr r0
  c8:	00000038 	andeq	r0, r0, r8, lsr r0
  cc:	047d0002 	ldrbteq	r0, [sp], #-2
  d0:	00000038 	andeq	r0, r0, r8, lsr r0
  d4:	00000070 	andeq	r0, r0, r0, ror r0
  d8:	107d0002 	rsbsne	r0, sp, r2
	...
  e4:	00000070 	andeq	r0, r0, r0, ror r0
  e8:	00000074 	andeq	r0, r0, r4, ror r0
  ec:	007d0002 	rsbseq	r0, sp, r2
  f0:	00000074 	andeq	r0, r0, r4, ror r0
  f4:	00000088 	andeq	r0, r0, r8, lsl #1
  f8:	087d0002 	ldmdaeq	sp!, {r1}^
	...
 104:	00000088 	andeq	r0, r0, r8, lsl #1
 108:	0000008c 	andeq	r0, r0, ip, lsl #1
 10c:	007d0002 	rsbseq	r0, sp, r2
 110:	0000008c 	andeq	r0, r0, ip, lsl #1
 114:	000000a0 	andeq	r0, r0, r0, lsr #1
 118:	087d0002 	ldmdaeq	sp!, {r1}^
	...
 124:	000000a0 	andeq	r0, r0, r0, lsr #1
 128:	000000a4 	andeq	r0, r0, r4, lsr #1
 12c:	007d0002 	rsbseq	r0, sp, r2
 130:	000000a4 	andeq	r0, r0, r4, lsr #1
 134:	000000a8 	andeq	r0, r0, r8, lsr #1
 138:	047d0002 	ldrbteq	r0, [sp], #-2
 13c:	000000a8 	andeq	r0, r0, r8, lsr #1
 140:	00000134 	andeq	r0, r0, r4, lsr r1
 144:	107d0002 	rsbsne	r0, sp, r2
	...
 154:	00000004 	andeq	r0, r0, r4
 158:	007d0002 	rsbseq	r0, sp, r2
 15c:	00000004 	andeq	r0, r0, r4
 160:	00000008 	andeq	r0, r0, r8
 164:	047d0002 	ldrbteq	r0, [sp], #-2
 168:	00000008 	andeq	r0, r0, r8
 16c:	00000148 	andeq	r0, r0, r8, asr #2
 170:	207d0002 	rsbscs	r0, sp, r2
	...
 17c:	00000148 	andeq	r0, r0, r8, asr #2
 180:	0000014c 	andeq	r0, r0, ip, asr #2
 184:	007d0002 	rsbseq	r0, sp, r2
 188:	0000014c 	andeq	r0, r0, ip, asr #2
 18c:	00000150 	andeq	r0, r0, r0, asr r1
 190:	047d0002 	ldrbteq	r0, [sp], #-2
 194:	00000150 	andeq	r0, r0, r0, asr r1
 198:	000001a0 	andeq	r0, r0, r0, lsr #3
 19c:	107d0002 	rsbsne	r0, sp, r2
	...
 1a8:	000001a0 	andeq	r0, r0, r0, lsr #3
 1ac:	000001a4 	andeq	r0, r0, r4, lsr #3
 1b0:	007d0002 	rsbseq	r0, sp, r2
 1b4:	000001a4 	andeq	r0, r0, r4, lsr #3
 1b8:	00000220 	andeq	r0, r0, r0, lsr #4
 1bc:	087d0002 	ldmdaeq	sp!, {r1}^
	...
 1c8:	00000220 	andeq	r0, r0, r0, lsr #4
 1cc:	00000224 	andeq	r0, r0, r4, lsr #4
 1d0:	007d0002 	rsbseq	r0, sp, r2
 1d4:	00000224 	andeq	r0, r0, r4, lsr #4
 1d8:	000002c4 	andeq	r0, r0, r4, asr #5
 1dc:	087d0002 	ldmdaeq	sp!, {r1}^
	...
 1e8:	000002c4 	andeq	r0, r0, r4, asr #5
 1ec:	000002c8 	andeq	r0, r0, r8, asr #5
 1f0:	007d0002 	rsbseq	r0, sp, r2
 1f4:	000002c8 	andeq	r0, r0, r8, asr #5
 1f8:	00000300 	andeq	r0, r0, r0, lsl #6
 1fc:	087d0002 	ldmdaeq	sp!, {r1}^
	...
 208:	0000006c 	andeq	r0, r0, ip, rrx
 20c:	00000070 	andeq	r0, r0, r0, ror r0
 210:	007d0002 	rsbseq	r0, sp, r2
 214:	00000070 	andeq	r0, r0, r0, ror r0
 218:	000000c4 	andeq	r0, r0, r4, asr #1
 21c:	087d0002 	ldmdaeq	sp!, {r1}^
	...
 22c:	00000004 	andeq	r0, r0, r4
 230:	007d0002 	rsbseq	r0, sp, r2
 234:	00000004 	andeq	r0, r0, r4
 238:	00000008 	andeq	r0, r0, r8
 23c:	047d0002 	ldrbteq	r0, [sp], #-2
 240:	00000008 	andeq	r0, r0, r8
 244:	00000078 	andeq	r0, r0, r8, ror r0
 248:	187d0002 	ldmdane	sp!, {r1}^
	...
 254:	00000078 	andeq	r0, r0, r8, ror r0
 258:	0000007c 	andeq	r0, r0, ip, ror r0
 25c:	007d0002 	rsbseq	r0, sp, r2
 260:	0000007c 	andeq	r0, r0, ip, ror r0
 264:	00000080 	andeq	r0, r0, r0, lsl #1
 268:	047d0002 	ldrbteq	r0, [sp], #-2
 26c:	00000080 	andeq	r0, r0, r0, lsl #1
 270:	0000009c 	muleq	r0, ip, r0
 274:	107d0002 	rsbsne	r0, sp, r2
	...
 284:	00000004 	andeq	r0, r0, r4
 288:	007d0002 	rsbseq	r0, sp, r2
 28c:	00000004 	andeq	r0, r0, r4
 290:	00000008 	andeq	r0, r0, r8
 294:	047d0002 	ldrbteq	r0, [sp], #-2
 298:	00000008 	andeq	r0, r0, r8
 29c:	000000e0 	andeq	r0, r0, r0, ror #1
 2a0:	187d0002 	ldmdane	sp!, {r1}^
	...
 2ac:	000000e0 	andeq	r0, r0, r0, ror #1
 2b0:	000000e4 	andeq	r0, r0, r4, ror #1
 2b4:	007d0002 	rsbseq	r0, sp, r2
 2b8:	000000e4 	andeq	r0, r0, r4, ror #1
 2bc:	00000128 	andeq	r0, r0, r8, lsr #2
 2c0:	087d0002 	ldmdaeq	sp!, {r1}^
	...
 2cc:	00000128 	andeq	r0, r0, r8, lsr #2
 2d0:	0000012c 	andeq	r0, r0, ip, lsr #2
 2d4:	007d0002 	rsbseq	r0, sp, r2
 2d8:	0000012c 	andeq	r0, r0, ip, lsr #2
 2dc:	000001e0 	andeq	r0, r0, r0, ror #3
 2e0:	087d0002 	ldmdaeq	sp!, {r1}^
	...
 2ec:	000001e0 	andeq	r0, r0, r0, ror #3
 2f0:	000001e4 	andeq	r0, r0, r4, ror #3
 2f4:	007d0002 	rsbseq	r0, sp, r2
 2f8:	000001e4 	andeq	r0, r0, r4, ror #3
 2fc:	000001ec 	andeq	r0, r0, ip, ror #3
 300:	087d0002 	ldmdaeq	sp!, {r1}^
	...

Disassembly of section .debug_str:

00000000 <.debug_str>:
   0:	41747063 	cmnmi	r4, r3, rrx
   4:	6e756600 	cdpvs	6, 7, cr6, cr5, cr0, {0}
   8:	53004263 	movwpl	r4, #611	; 0x263
   c:	4b434154 	blmi	10d0564 <_bss_end+0x10c5564>
  10:	5a49535f 	bpl	1254d94 <_bss_end+0x1249d94>
  14:	6f6e0045 	svcvs	0x006e0045
  18:	69616d74 	stmdbvs	r1!, {r2, r4, r5, r6, r8, sl, fp, sp, lr}^
  1c:	00632e6e 	rsbeq	r2, r3, lr, ror #28
  20:	5f626370 	svcpl	0x00626370
  24:	70630073 	rsbvc	r0, r3, r3, ror r0
  28:	2f004274 	svccs	0x00004274
  2c:	656d6f68 	strbvs	r6, [sp, #-3944]!	; 0xf68
  30:	75626e2f 	strbvc	r6, [r2, #-3631]!	; 0xe2f
  34:	6f737369 	svcvs	0x00737369
  38:	34482f6e 	strbcc	r2, [r8], #-3950	; 0xf6e
  3c:	2f343034 	svccs	0x00343034
  40:	70736152 	rsbsvc	r6, r3, r2, asr r1
  44:	72726562 	rsbsvc	r6, r2, #411041792	; 0x18800000
  48:	6f6c2f79 	svcvs	0x006c2f79
  4c:	65736975 	ldrbvs	r6, [r3, #-2421]!	; 0x975
  50:	626f622d 	rsbvs	r6, pc, #-805306366	; 0xd0000002
  54:	64726f2f 	ldrbtvs	r6, [r2], #-3887	; 0xf2f
  58:	616e6e6f 	cmnvs	lr, pc, ror #28
  5c:	6d65636e 	stclvs	3, cr6, [r5, #-440]!	; 0xfffffe48
  60:	5f746e65 	svcpl	0x00746e65
  64:	6c6c6f63 	stclvs	15, cr6, [ip], #-396	; 0xfffffe74
  68:	726f6261 	rsbvc	r6, pc, #268435462	; 0x10000006
  6c:	66697461 	strbtvs	r7, [r9], -r1, ror #8
  70:	736e7500 	cmnvc	lr, #0
  74:	656e6769 	strbvs	r6, [lr, #-1897]!	; 0x769
  78:	68632064 	stmdavs	r3!, {r2, r5, r6, sp}^
  7c:	73007261 	movwvc	r7, #609	; 0x261
  80:	74726f68 	ldrbtvc	r6, [r2], #-3944	; 0xf68
  84:	736e7520 	cmnvc	lr, #134217728	; 0x8000000
  88:	656e6769 	strbvs	r6, [lr, #-1897]!	; 0x769
  8c:	6e692064 	cdpvs	0, 6, cr2, cr9, cr4, {3}
  90:	72700074 	rsbsvc	r0, r0, #116	; 0x74
  94:	6f697665 	svcvs	0x00697665
  98:	66007375 			; <UNDEFINED> instruction: 0x66007375
  9c:	41636e75 	smcmi	14053	; 0x36e5
  a0:	42435000 	submi	r5, r3, #0
  a4:	4154535f 	cmpmi	r4, pc, asr r3
  a8:	63004554 	movwvs	r4, #1364	; 0x554
  ac:	65727275 	ldrbvs	r7, [r2, #-629]!	; 0x275
  b0:	705f746e 	subsvc	r7, pc, lr, ror #8
  b4:	65636f72 	strbvs	r6, [r3, #-3954]!	; 0xf72
  b8:	72007373 	andvc	r7, r0, #-872415231	; 0xcc000001
  bc:	696e6e75 	stmdbvs	lr!, {r0, r2, r4, r5, r6, r9, sl, fp, sp, lr}^
  c0:	6c00676e 	stcvs	7, cr6, [r0], {110}	; 0x6e
  c4:	20676e6f 	rsbcs	r6, r7, pc, ror #28
  c8:	676e6f6c 	strbvs	r6, [lr, -ip, ror #30]!
  cc:	736e7520 	cmnvc	lr, #134217728	; 0x8000000
  d0:	656e6769 	strbvs	r6, [lr, #-1897]!	; 0x769
  d4:	6e692064 	cdpvs	0, 6, cr2, cr9, cr4, {3}
  d8:	45520074 	ldrbmi	r0, [r2, #-116]	; 0x74
  dc:	00594441 	subseq	r4, r9, r1, asr #8
  e0:	676e6f6c 	strbvs	r6, [lr, -ip, ror #30]!
  e4:	6e6f6c20 	cdpvs	12, 6, cr6, cr15, cr0, {1}
  e8:	6e692067 	cdpvs	0, 6, cr2, cr9, cr7, {3}
  ec:	4e470074 	mcrmi	0, 2, r0, cr7, cr4, {3}
  f0:	20432055 	subcs	r2, r3, r5, asr r0
  f4:	2e372e34 	mrccs	14, 1, r2, cr7, cr4, {1}
  f8:	68730031 	ldmdavs	r3!, {r0, r4, r5}^
  fc:	2074726f 	rsbscs	r7, r4, pc, ror #4
 100:	00746e69 	rsbseq	r6, r4, r9, ror #28
 104:	73677261 	cmnvc	r7, #268435462	; 0x10000006
 108:	6e697500 	cdpvs	5, 6, cr7, cr9, cr0, {0}
 10c:	5f323374 	svcpl	0x00323374
 110:	55520074 	ldrbpl	r0, [r2, #-116]	; 0x74
 114:	4e494e4e 	cdpmi	14, 4, cr4, cr9, cr14, {2}
 118:	656e0047 	strbvs	r0, [lr, #-71]!	; 0x47
 11c:	54007478 	strpl	r7, [r0], #-1144	; 0x478
 120:	494d5245 	stmdbmi	sp, {r0, r2, r6, r9, ip, lr}^
 124:	4554414e 	ldrbmi	r4, [r4, #-334]	; 0x14e
 128:	6f6e0044 	svcvs	0x006e0044
 12c:	69616d74 	stmdbvs	r1!, {r2, r4, r5, r6, r8, sl, fp, sp, lr}^
 130:	6964006e 	stmdbvs	r4!, {r1, r2, r3, r5, r6}^
 134:	6c626173 	stfvse	f6, [r2], #-460	; 0xfffffe34
 138:	69745f65 	ldmdbvs	r4!, {r0, r2, r5, r6, r8, r9, sl, fp, ip, lr}^
 13c:	5f72656d 	svcpl	0x0072656d
 140:	00717269 	rsbseq	r7, r1, r9, ror #4
 144:	632e7768 	teqvs	lr, #27262976	; 0x1a00000
 148:	64656c00 	strbtvs	r6, [r5], #-3072	; 0xc00
 14c:	006e6f5f 	rsbeq	r6, lr, pc, asr pc
 150:	74696e69 	strbtvc	r6, [r9], #-3689	; 0xe69
 154:	0077685f 	rsbseq	r6, r7, pc, asr r8
 158:	5f746573 	svcpl	0x00746573
 15c:	7478656e 	ldrbtvc	r6, [r8], #-1390	; 0x56e
 160:	6369745f 	cmnvs	r9, #1593835520	; 0x5f000000
 164:	6e615f6b 	cdpvs	15, 6, cr5, cr1, cr11, {3}
 168:	6e655f64 	cdpvs	15, 6, cr5, cr5, cr4, {3}
 16c:	656c6261 	strbvs	r6, [ip, #-609]!	; 0x261
 170:	6d69745f 	cfstrdvs	mvd7, [r9, #-380]!	; 0xfffffe84
 174:	695f7265 	ldmdbvs	pc, {r0, r2, r5, r6, r9, ip, sp, lr}^	; <UNPREDICTABLE>
 178:	6c007172 	stfvss	f7, [r0], {114}	; 0x72
 17c:	6f5f6465 	svcvs	0x005f6465
 180:	6d006666 	stcvs	6, cr6, [r0, #-408]	; 0xfffffe68
 184:	726f6d65 	rsbvc	r6, pc, #6464	; 0x1940
 188:	6c655f79 	stclvs	15, cr5, [r5], #-484	; 0xfffffe1c
 18c:	6e656d65 	cdpvs	13, 6, cr6, cr5, cr5, {3}
 190:	00745f74 	rsbseq	r5, r4, r4, ror pc
 194:	6e497369 	cdpvs	3, 4, cr7, cr9, cr9, {3}
 198:	61697469 	cmnvs	r9, r9, ror #8
 19c:	6573696c 	ldrbvs	r6, [r3, #-2412]!	; 0x96c
 1a0:	72460064 	subvc	r0, r6, #100	; 0x64
 1a4:	6c416565 	cfstr64vs	mvdx6, [r1], {101}	; 0x65
 1a8:	61636f6c 	cmnvs	r3, ip, ror #30
 1ac:	4d646574 	cfstr64mi	mvdx6, [r4, #-464]!	; 0xfffffe30
 1b0:	726f6d65 	rsbvc	r6, pc, #6464	; 0x1940
 1b4:	6c410079 	mcrrvs	0, 7, r0, r1, cr9
 1b8:	61636f6c 	cmnvs	r3, ip, ror #30
 1bc:	654d6574 	strbvs	r6, [sp, #-1396]	; 0x574
 1c0:	79726f6d 	ldmdbvc	r2!, {r0, r2, r3, r5, r6, r8, r9, sl, fp, sp, lr}^
 1c4:	6e6f6300 	cdpvs	3, 6, cr6, cr15, cr0, {0}
 1c8:	65746163 	ldrbvs	r6, [r4, #-355]!	; 0x163
 1cc:	6574616e 	ldrbvs	r6, [r4, #-366]!	; 0x16e
 1d0:	65657246 	strbvs	r7, [r5, #-582]!	; 0x246
 1d4:	636f6c42 	cmnvs	pc, #16896	; 0x4200
 1d8:	6100736b 	tstvs	r0, fp, ror #6
 1dc:	636f6c6c 	cmnvs	pc, #27648	; 0x6c00
 1e0:	4d657461 	cfstrdmi	mvd7, [r5, #-388]!	; 0xfffffe7c
 1e4:	726f6d65 	rsbvc	r6, pc, #6464	; 0x1940
 1e8:	00632e79 	rsbeq	r2, r3, r9, ror lr
 1ec:	61657263 	cmnvs	r5, r3, ror #4
 1f0:	65486574 	strbvs	r6, [r8, #-1396]	; 0x574
 1f4:	72656461 	rsbvc	r6, r5, #1627389952	; 0x61000000
 1f8:	7a697300 	bvc	1a5ce00 <_bss_end+0x1a51e00>
 1fc:	46664f65 	strbtmi	r4, [r6], -r5, ror #30
 200:	53656572 	cmnpl	r5, #478150656	; 0x1c800000
 204:	65636170 	strbvs	r6, [r3, #-368]!	; 0x170
 208:	64646100 	strbtvs	r6, [r4], #-256	; 0x100
 20c:	73736572 	cmnvc	r3, #478150656	; 0x1c800000
 210:	61656800 	cmnvs	r5, r0, lsl #16
 214:	69730070 	ldmdbvs	r3!, {r4, r5, r6}^
 218:	7974657a 	ldmdbvc	r4!, {r1, r3, r4, r5, r6, r8, sl, sp, lr}^
 21c:	68006570 	stmdavs	r0, {r4, r5, r6, r8, sl, sp, lr}
 220:	65646165 	strbvs	r6, [r4, #-357]!	; 0x165
 224:	78654e72 	stmdavc	r5!, {r1, r4, r5, r6, r9, sl, fp, lr}^
 228:	696f5074 	stmdbvs	pc!, {r2, r4, r5, r6, ip, lr}^	; <UNPREDICTABLE>
 22c:	7265746e 	rsbvc	r7, r5, #1845493760	; 0x6e000000
 230:	65726300 	ldrbvs	r6, [r2, #-768]!	; 0x300
 234:	49657461 	stmdbmi	r5!, {r0, r5, r6, sl, ip, sp, lr}^
 238:	6974696e 	ldmdbvs	r4!, {r1, r2, r3, r5, r6, r8, fp, sp, lr}^
 23c:	65486c61 	strbvs	r6, [r8, #-3169]	; 0xc61
 240:	72656461 	rsbvc	r6, r5, #1627389952	; 0x61000000
 244:	46736900 	ldrbtmi	r6, [r3], -r0, lsl #18
 248:	646e756f 	strbtvs	r7, [lr], #-1391	; 0x56f
 24c:	73696400 	cmnvc	r9, #0
 250:	63746170 	cmnvs	r4, #28
 254:	2e726568 	cdpcs	5, 7, cr6, cr2, cr8, {3}
 258:	74730063 	ldrbtvc	r0, [r3], #-99	; 0x63
 25c:	5f747261 	svcpl	0x00747261
 260:	72727563 	rsbsvc	r7, r2, #415236096	; 0x18c00000
 264:	5f746e65 	svcpl	0x00746e65
 268:	00787463 	rsbseq	r7, r8, r3, ror #8
 26c:	5f787463 	svcpl	0x00787463
 270:	74697773 	strbtvc	r7, [r9], #-1907	; 0x773
 274:	66006863 	strvs	r6, [r0], -r3, ror #16
 278:	5f636e75 	svcpl	0x00636e75
 27c:	72700074 	rsbsvc	r0, r0, #116	; 0x74
 280:	7365636f 	cmnvc	r5, #-1140850687	; 0xbc000001
 284:	00632e73 	rsbeq	r2, r3, r3, ror lr
 288:	63617473 	cmnvs	r1, #1929379840	; 0x73000000
 28c:	69735f6b 	ldmdbvs	r3!, {r0, r1, r3, r5, r6, r8, r9, sl, fp, ip, lr}^
 290:	6600657a 			; <UNDEFINED> instruction: 0x6600657a
 294:	5f656572 	svcpl	0x00656572
 298:	00626370 	rsbeq	r6, r2, r0, ror r3
 29c:	74696e69 	strbtvc	r6, [r9], #-3689	; 0xe69
 2a0:	6263705f 	rsbvs	r7, r3, #95	; 0x5f
 2a4:	68637300 	stmdavs	r3!, {r8, r9, ip, sp, lr}^
 2a8:	632e6465 	teqvs	lr, #1694498816	; 0x65000000
 2ac:	61747300 	cmnvs	r4, r0, lsl #6
 2b0:	735f7472 	cmpvc	pc, #1912602624	; 0x72000000
 2b4:	64656863 	strbtvs	r6, [r5], #-2147	; 0x863
 2b8:	69786500 	ldmdbvs	r8!, {r8, sl, sp, lr}^
 2bc:	69790074 	ldmdbvs	r9!, {r2, r4, r5, r6}^
 2c0:	00646c65 	rsbeq	r6, r4, r5, ror #24
 2c4:	61657263 	cmnvs	r5, r3, ror #4
 2c8:	705f6574 	subsvc	r6, pc, r4, ror r5	; <UNPREDICTABLE>
 2cc:	65636f72 	strbvs	r6, [r3, #-3954]!	; 0xf72
 2d0:	Address 0x00000000000002d0 is out of bounds.


Disassembly of section .debug_frame:

00000000 <.debug_frame>:
   0:	0000000c 	andeq	r0, r0, ip
   4:	ffffffff 			; <UNDEFINED> instruction: 0xffffffff
   8:	7c020001 	stcvc	0, cr0, [r2], {1}
   c:	000d0c0e 	andeq	r0, sp, lr, lsl #24
  10:	00000014 	andeq	r0, r0, r4, lsl r0
  14:	00000000 	andeq	r0, r0, r0
  18:	000080d0 	ldrdeq	r8, [r0], -r0
  1c:	0000003c 	andeq	r0, r0, ip, lsr r0
  20:	8e040e42 	cdphi	14, 0, cr0, cr4, cr2, {2}
  24:	100e4201 	andne	r4, lr, r1, lsl #4
  28:	00000014 	andeq	r0, r0, r4, lsl r0
  2c:	00000000 	andeq	r0, r0, r0
  30:	0000810c 	andeq	r8, r0, ip, lsl #2
  34:	00000024 	andeq	r0, r0, r4, lsr #32
  38:	8e040e42 	cdphi	14, 0, cr0, cr4, cr2, {2}
  3c:	100e4201 	andne	r4, lr, r1, lsl #4
  40:	00000014 	andeq	r0, r0, r4, lsl r0
  44:	00000000 	andeq	r0, r0, r0
  48:	00008130 	andeq	r8, r0, r0, lsr r1
  4c:	00000034 	andeq	r0, r0, r4, lsr r0
  50:	83080e42 	movwhi	r0, #36418	; 0x8e42
  54:	00018e02 	andeq	r8, r1, r2, lsl #28
  58:	0000000c 	andeq	r0, r0, ip
  5c:	ffffffff 			; <UNDEFINED> instruction: 0xffffffff
  60:	7c020001 	stcvc	0, cr0, [r2], {1}
  64:	000d0c0e 	andeq	r0, sp, lr, lsl #24
  68:	00000014 	andeq	r0, r0, r4, lsl r0
  6c:	00000058 	andeq	r0, r0, r8, asr r0
  70:	00008164 	andeq	r8, r0, r4, ror #2
  74:	00000018 	andeq	r0, r0, r8, lsl r0
  78:	83080e42 	movwhi	r0, #36418	; 0x8e42
  7c:	00018e02 	andeq	r8, r1, r2, lsl #28
  80:	00000014 	andeq	r0, r0, r4, lsl r0
  84:	00000058 	andeq	r0, r0, r8, asr r0
  88:	0000817c 	andeq	r8, r0, ip, ror r1
  8c:	00000018 	andeq	r0, r0, r8, lsl r0
  90:	83080e42 	movwhi	r0, #36418	; 0x8e42
  94:	00018e02 	andeq	r8, r1, r2, lsl #28
  98:	00000014 	andeq	r0, r0, r4, lsl r0
  9c:	00000058 	andeq	r0, r0, r8, asr r0
  a0:	00008194 	muleq	r0, r4, r1
  a4:	00000040 	andeq	r0, r0, r0, asr #32
  a8:	8e040e42 	cdphi	14, 0, cr0, cr4, cr2, {2}
  ac:	100e4201 	andne	r4, lr, r1, lsl #4
  b0:	00000014 	andeq	r0, r0, r4, lsl r0
  b4:	00000058 	andeq	r0, r0, r8, asr r0
  b8:	000081d4 	ldrdeq	r8, [r0], -r4
  bc:	00000018 	andeq	r0, r0, r8, lsl r0
  c0:	83080e42 	movwhi	r0, #36418	; 0x8e42
  c4:	00018e02 	andeq	r8, r1, r2, lsl #28
  c8:	00000014 	andeq	r0, r0, r4, lsl r0
  cc:	00000058 	andeq	r0, r0, r8, asr r0
  d0:	000081ec 	andeq	r8, r0, ip, ror #3
  d4:	00000018 	andeq	r0, r0, r8, lsl r0
  d8:	83080e42 	movwhi	r0, #36418	; 0x8e42
  dc:	00018e02 	andeq	r8, r1, r2, lsl #28
  e0:	00000014 	andeq	r0, r0, r4, lsl r0
  e4:	00000058 	andeq	r0, r0, r8, asr r0
  e8:	00008204 	andeq	r8, r0, r4, lsl #4
  ec:	00000094 	muleq	r0, r4, r0
  f0:	8e040e42 	cdphi	14, 0, cr0, cr4, cr2, {2}
  f4:	100e4201 	andne	r4, lr, r1, lsl #4
  f8:	0000000c 	andeq	r0, r0, ip
  fc:	ffffffff 			; <UNDEFINED> instruction: 0xffffffff
 100:	7c020001 	stcvc	0, cr0, [r2], {1}
 104:	000d0c0e 	andeq	r0, sp, lr, lsl #24
 108:	00000014 	andeq	r0, r0, r4, lsl r0
 10c:	000000f8 	strdeq	r0, [r0], -r8
 110:	00008298 	muleq	r0, r8, r2
 114:	00000148 	andeq	r0, r0, r8, asr #2
 118:	8e040e42 	cdphi	14, 0, cr0, cr4, cr2, {2}
 11c:	200e4201 	andcs	r4, lr, r1, lsl #4
 120:	00000014 	andeq	r0, r0, r4, lsl r0
 124:	000000f8 	strdeq	r0, [r0], -r8
 128:	000083e0 	andeq	r8, r0, r0, ror #7
 12c:	00000058 	andeq	r0, r0, r8, asr r0
 130:	8e040e42 	cdphi	14, 0, cr0, cr4, cr2, {2}
 134:	100e4201 	andne	r4, lr, r1, lsl #4
 138:	00000010 	andeq	r0, r0, r0, lsl r0
 13c:	000000f8 	strdeq	r0, [r0], -r8
 140:	00008438 	andeq	r8, r0, r8, lsr r4
 144:	00000080 	andeq	r0, r0, r0, lsl #1
 148:	00080e42 	andeq	r0, r8, r2, asr #28
 14c:	00000010 	andeq	r0, r0, r0, lsl r0
 150:	000000f8 	strdeq	r0, [r0], -r8
 154:	000084b8 			; <UNDEFINED> instruction: 0x000084b8
 158:	000000a4 	andeq	r0, r0, r4, lsr #1
 15c:	00080e42 	andeq	r0, r8, r2, asr #28
 160:	00000010 	andeq	r0, r0, r0, lsl r0
 164:	000000f8 	strdeq	r0, [r0], -r8
 168:	0000855c 	andeq	r8, r0, ip, asr r5
 16c:	0000003c 	andeq	r0, r0, ip, lsr r0
 170:	00080e42 	andeq	r0, r8, r2, asr #28
 174:	0000000c 	andeq	r0, r0, ip
 178:	ffffffff 			; <UNDEFINED> instruction: 0xffffffff
 17c:	7c020001 	stcvc	0, cr0, [r2], {1}
 180:	000d0c0e 	andeq	r0, sp, lr, lsl #24
 184:	0000000c 	andeq	r0, r0, ip
 188:	00000174 	andeq	r0, r0, r4, ror r1
 18c:	00008598 	muleq	r0, r8, r5
 190:	0000006c 	andeq	r0, r0, ip, rrx
 194:	00000014 	andeq	r0, r0, r4, lsl r0
 198:	00000174 	andeq	r0, r0, r4, ror r1
 19c:	00008604 	andeq	r8, r0, r4, lsl #12
 1a0:	00000058 	andeq	r0, r0, r8, asr r0
 1a4:	83080e42 	movwhi	r0, #36418	; 0x8e42
 1a8:	00018e02 	andeq	r8, r1, r2, lsl #28
 1ac:	0000000c 	andeq	r0, r0, ip
 1b0:	ffffffff 			; <UNDEFINED> instruction: 0xffffffff
 1b4:	7c020001 	stcvc	0, cr0, [r2], {1}
 1b8:	000d0c0e 	andeq	r0, sp, lr, lsl #24
 1bc:	00000014 	andeq	r0, r0, r4, lsl r0
 1c0:	000001ac 	andeq	r0, r0, ip, lsr #3
 1c4:	0000865c 	andeq	r8, r0, ip, asr r6
 1c8:	00000078 	andeq	r0, r0, r8, ror r0
 1cc:	8e040e42 	cdphi	14, 0, cr0, cr4, cr2, {2}
 1d0:	180e4201 	stmdane	lr, {r0, r9, lr}
 1d4:	00000014 	andeq	r0, r0, r4, lsl r0
 1d8:	000001ac 	andeq	r0, r0, ip, lsr #3
 1dc:	000086d4 	ldrdeq	r8, [r0], -r4
 1e0:	00000024 	andeq	r0, r0, r4, lsr #32
 1e4:	8e040e42 	cdphi	14, 0, cr0, cr4, cr2, {2}
 1e8:	100e4201 	andne	r4, lr, r1, lsl #4
 1ec:	0000000c 	andeq	r0, r0, ip
 1f0:	ffffffff 			; <UNDEFINED> instruction: 0xffffffff
 1f4:	7c020001 	stcvc	0, cr0, [r2], {1}
 1f8:	000d0c0e 	andeq	r0, sp, lr, lsl #24
 1fc:	00000014 	andeq	r0, r0, r4, lsl r0
 200:	000001ec 	andeq	r0, r0, ip, ror #3
 204:	000086f8 	strdeq	r8, [r0], -r8	; <UNPREDICTABLE>
 208:	000000e0 	andeq	r0, r0, r0, ror #1
 20c:	8e040e42 	cdphi	14, 0, cr0, cr4, cr2, {2}
 210:	180e4201 	stmdane	lr, {r0, r9, lr}
 214:	00000014 	andeq	r0, r0, r4, lsl r0
 218:	000001ec 	andeq	r0, r0, ip, ror #3
 21c:	000087d8 	ldrdeq	r8, [r0], -r8	; <UNPREDICTABLE>
 220:	00000048 	andeq	r0, r0, r8, asr #32
 224:	83080e42 	movwhi	r0, #36418	; 0x8e42
 228:	00018e02 	andeq	r8, r1, r2, lsl #28
 22c:	00000014 	andeq	r0, r0, r4, lsl r0
 230:	000001ec 	andeq	r0, r0, ip, ror #3
 234:	00008820 	andeq	r8, r0, r0, lsr #16
 238:	000000b8 	strheq	r0, [r0], -r8
 23c:	83080e42 	movwhi	r0, #36418	; 0x8e42
 240:	00018e02 	andeq	r8, r1, r2, lsl #28
 244:	00000014 	andeq	r0, r0, r4, lsl r0
 248:	000001ec 	andeq	r0, r0, ip, ror #3
 24c:	000088d8 	ldrdeq	r8, [r0], -r8	; <UNPREDICTABLE>
 250:	0000000c 	andeq	r0, r0, ip
 254:	83080e42 	movwhi	r0, #36418	; 0x8e42
 258:	00018e02 	andeq	r8, r1, r2, lsl #28

Disassembly of section .debug_ranges:

00000000 <.debug_ranges>:
   0:	0000006c 	andeq	r0, r0, ip, rrx
   4:	000000e4 	andeq	r0, r0, r4, ror #1
   8:	00000110 	andeq	r0, r0, r0, lsl r1
   c:	00000114 	andeq	r0, r0, r4, lsl r1
	...
